ARM GAS  C:\Users\lenovo\AppData\Local\Temp\ccvaGzQf.s 			page 1


   1              		.cpu cortex-m3
   2              		.arch armv7-m
   3              		.fpu softvfp
   4              		.eabi_attribute 20, 1
   5              		.eabi_attribute 21, 1
   6              		.eabi_attribute 23, 3
   7              		.eabi_attribute 24, 1
   8              		.eabi_attribute 25, 1
   9              		.eabi_attribute 26, 1
  10              		.eabi_attribute 30, 1
  11              		.eabi_attribute 34, 1
  12              		.eabi_attribute 18, 4
  13              		.file	"stm32f1xx_hal_exti.c"
  14              		.text
  15              	.Ltext0:
  16              		.cfi_sections	.debug_frame
  17              		.section	.text.HAL_EXTI_SetConfigLine,"ax",%progbits
  18              		.align	1
  19              		.global	HAL_EXTI_SetConfigLine
  20              		.syntax unified
  21              		.thumb
  22              		.thumb_func
  24              	HAL_EXTI_SetConfigLine:
  25              	.LVL0:
  26              	.LFB65:
  27              		.file 1 "C:/Users/lenovo/STM32Cube/Repository/STM32Cube_FW_F1_V1.8.0/Drivers/STM32F1xx_HAL_Driver/
   1:C:/Users/lenovo/STM32Cube/Repository/STM32Cube_FW_F1_V1.8.0/Drivers/STM32F1xx_HAL_Driver/Src\stm32f1xx_hal_exti.c **** /**
   2:C:/Users/lenovo/STM32Cube/Repository/STM32Cube_FW_F1_V1.8.0/Drivers/STM32F1xx_HAL_Driver/Src\stm32f1xx_hal_exti.c ****   ******************************************************************************
   3:C:/Users/lenovo/STM32Cube/Repository/STM32Cube_FW_F1_V1.8.0/Drivers/STM32F1xx_HAL_Driver/Src\stm32f1xx_hal_exti.c ****   * @file    stm32f1xx_hal_exti.c
   4:C:/Users/lenovo/STM32Cube/Repository/STM32Cube_FW_F1_V1.8.0/Drivers/STM32F1xx_HAL_Driver/Src\stm32f1xx_hal_exti.c ****   * @author  MCD Application Team
   5:C:/Users/lenovo/STM32Cube/Repository/STM32Cube_FW_F1_V1.8.0/Drivers/STM32F1xx_HAL_Driver/Src\stm32f1xx_hal_exti.c ****   * @brief   EXTI HAL module driver.
   6:C:/Users/lenovo/STM32Cube/Repository/STM32Cube_FW_F1_V1.8.0/Drivers/STM32F1xx_HAL_Driver/Src\stm32f1xx_hal_exti.c ****   *          This file provides firmware functions to manage the following
   7:C:/Users/lenovo/STM32Cube/Repository/STM32Cube_FW_F1_V1.8.0/Drivers/STM32F1xx_HAL_Driver/Src\stm32f1xx_hal_exti.c ****   *          functionalities of the Extended Interrupts and events controller (EXTI) peripheral:
   8:C:/Users/lenovo/STM32Cube/Repository/STM32Cube_FW_F1_V1.8.0/Drivers/STM32F1xx_HAL_Driver/Src\stm32f1xx_hal_exti.c ****   *           + Initialization and de-initialization functions
   9:C:/Users/lenovo/STM32Cube/Repository/STM32Cube_FW_F1_V1.8.0/Drivers/STM32F1xx_HAL_Driver/Src\stm32f1xx_hal_exti.c ****   *           + IO operation functions
  10:C:/Users/lenovo/STM32Cube/Repository/STM32Cube_FW_F1_V1.8.0/Drivers/STM32F1xx_HAL_Driver/Src\stm32f1xx_hal_exti.c ****   *
  11:C:/Users/lenovo/STM32Cube/Repository/STM32Cube_FW_F1_V1.8.0/Drivers/STM32F1xx_HAL_Driver/Src\stm32f1xx_hal_exti.c ****   @verbatim
  12:C:/Users/lenovo/STM32Cube/Repository/STM32Cube_FW_F1_V1.8.0/Drivers/STM32F1xx_HAL_Driver/Src\stm32f1xx_hal_exti.c ****   ==============================================================================
  13:C:/Users/lenovo/STM32Cube/Repository/STM32Cube_FW_F1_V1.8.0/Drivers/STM32F1xx_HAL_Driver/Src\stm32f1xx_hal_exti.c ****                     ##### EXTI Peripheral features #####
  14:C:/Users/lenovo/STM32Cube/Repository/STM32Cube_FW_F1_V1.8.0/Drivers/STM32F1xx_HAL_Driver/Src\stm32f1xx_hal_exti.c ****   ==============================================================================
  15:C:/Users/lenovo/STM32Cube/Repository/STM32Cube_FW_F1_V1.8.0/Drivers/STM32F1xx_HAL_Driver/Src\stm32f1xx_hal_exti.c ****   [..]
  16:C:/Users/lenovo/STM32Cube/Repository/STM32Cube_FW_F1_V1.8.0/Drivers/STM32F1xx_HAL_Driver/Src\stm32f1xx_hal_exti.c ****     (+) Each Exti line can be configured within this driver.
  17:C:/Users/lenovo/STM32Cube/Repository/STM32Cube_FW_F1_V1.8.0/Drivers/STM32F1xx_HAL_Driver/Src\stm32f1xx_hal_exti.c **** 
  18:C:/Users/lenovo/STM32Cube/Repository/STM32Cube_FW_F1_V1.8.0/Drivers/STM32F1xx_HAL_Driver/Src\stm32f1xx_hal_exti.c ****     (+) Exti line can be configured in 3 different modes
  19:C:/Users/lenovo/STM32Cube/Repository/STM32Cube_FW_F1_V1.8.0/Drivers/STM32F1xx_HAL_Driver/Src\stm32f1xx_hal_exti.c ****         (++) Interrupt
  20:C:/Users/lenovo/STM32Cube/Repository/STM32Cube_FW_F1_V1.8.0/Drivers/STM32F1xx_HAL_Driver/Src\stm32f1xx_hal_exti.c ****         (++) Event
  21:C:/Users/lenovo/STM32Cube/Repository/STM32Cube_FW_F1_V1.8.0/Drivers/STM32F1xx_HAL_Driver/Src\stm32f1xx_hal_exti.c ****         (++) Both of them
  22:C:/Users/lenovo/STM32Cube/Repository/STM32Cube_FW_F1_V1.8.0/Drivers/STM32F1xx_HAL_Driver/Src\stm32f1xx_hal_exti.c **** 
  23:C:/Users/lenovo/STM32Cube/Repository/STM32Cube_FW_F1_V1.8.0/Drivers/STM32F1xx_HAL_Driver/Src\stm32f1xx_hal_exti.c ****     (+) Configurable Exti lines can be configured with 3 different triggers
  24:C:/Users/lenovo/STM32Cube/Repository/STM32Cube_FW_F1_V1.8.0/Drivers/STM32F1xx_HAL_Driver/Src\stm32f1xx_hal_exti.c ****         (++) Rising
  25:C:/Users/lenovo/STM32Cube/Repository/STM32Cube_FW_F1_V1.8.0/Drivers/STM32F1xx_HAL_Driver/Src\stm32f1xx_hal_exti.c ****         (++) Falling
  26:C:/Users/lenovo/STM32Cube/Repository/STM32Cube_FW_F1_V1.8.0/Drivers/STM32F1xx_HAL_Driver/Src\stm32f1xx_hal_exti.c ****         (++) Both of them
  27:C:/Users/lenovo/STM32Cube/Repository/STM32Cube_FW_F1_V1.8.0/Drivers/STM32F1xx_HAL_Driver/Src\stm32f1xx_hal_exti.c **** 
  28:C:/Users/lenovo/STM32Cube/Repository/STM32Cube_FW_F1_V1.8.0/Drivers/STM32F1xx_HAL_Driver/Src\stm32f1xx_hal_exti.c ****     (+) When set in interrupt mode, configurable Exti lines have two different
  29:C:/Users/lenovo/STM32Cube/Repository/STM32Cube_FW_F1_V1.8.0/Drivers/STM32F1xx_HAL_Driver/Src\stm32f1xx_hal_exti.c ****         interrupts pending registers which allow to distinguish which transition
  30:C:/Users/lenovo/STM32Cube/Repository/STM32Cube_FW_F1_V1.8.0/Drivers/STM32F1xx_HAL_Driver/Src\stm32f1xx_hal_exti.c ****         occurs:
  31:C:/Users/lenovo/STM32Cube/Repository/STM32Cube_FW_F1_V1.8.0/Drivers/STM32F1xx_HAL_Driver/Src\stm32f1xx_hal_exti.c ****         (++) Rising edge pending interrupt
ARM GAS  C:\Users\lenovo\AppData\Local\Temp\ccvaGzQf.s 			page 2


  32:C:/Users/lenovo/STM32Cube/Repository/STM32Cube_FW_F1_V1.8.0/Drivers/STM32F1xx_HAL_Driver/Src\stm32f1xx_hal_exti.c ****         (++) Falling
  33:C:/Users/lenovo/STM32Cube/Repository/STM32Cube_FW_F1_V1.8.0/Drivers/STM32F1xx_HAL_Driver/Src\stm32f1xx_hal_exti.c **** 
  34:C:/Users/lenovo/STM32Cube/Repository/STM32Cube_FW_F1_V1.8.0/Drivers/STM32F1xx_HAL_Driver/Src\stm32f1xx_hal_exti.c ****     (+) Exti lines 0 to 15 are linked to gpio pin number 0 to 15. Gpio port can
  35:C:/Users/lenovo/STM32Cube/Repository/STM32Cube_FW_F1_V1.8.0/Drivers/STM32F1xx_HAL_Driver/Src\stm32f1xx_hal_exti.c ****         be selected through multiplexer.
  36:C:/Users/lenovo/STM32Cube/Repository/STM32Cube_FW_F1_V1.8.0/Drivers/STM32F1xx_HAL_Driver/Src\stm32f1xx_hal_exti.c **** 
  37:C:/Users/lenovo/STM32Cube/Repository/STM32Cube_FW_F1_V1.8.0/Drivers/STM32F1xx_HAL_Driver/Src\stm32f1xx_hal_exti.c ****                      ##### How to use this driver #####
  38:C:/Users/lenovo/STM32Cube/Repository/STM32Cube_FW_F1_V1.8.0/Drivers/STM32F1xx_HAL_Driver/Src\stm32f1xx_hal_exti.c ****   ==============================================================================
  39:C:/Users/lenovo/STM32Cube/Repository/STM32Cube_FW_F1_V1.8.0/Drivers/STM32F1xx_HAL_Driver/Src\stm32f1xx_hal_exti.c ****   [..]
  40:C:/Users/lenovo/STM32Cube/Repository/STM32Cube_FW_F1_V1.8.0/Drivers/STM32F1xx_HAL_Driver/Src\stm32f1xx_hal_exti.c **** 
  41:C:/Users/lenovo/STM32Cube/Repository/STM32Cube_FW_F1_V1.8.0/Drivers/STM32F1xx_HAL_Driver/Src\stm32f1xx_hal_exti.c ****     (#) Configure the EXTI line using HAL_EXTI_SetConfigLine().
  42:C:/Users/lenovo/STM32Cube/Repository/STM32Cube_FW_F1_V1.8.0/Drivers/STM32F1xx_HAL_Driver/Src\stm32f1xx_hal_exti.c ****         (++) Choose the interrupt line number by setting "Line" member from
  43:C:/Users/lenovo/STM32Cube/Repository/STM32Cube_FW_F1_V1.8.0/Drivers/STM32F1xx_HAL_Driver/Src\stm32f1xx_hal_exti.c ****              EXTI_ConfigTypeDef structure.
  44:C:/Users/lenovo/STM32Cube/Repository/STM32Cube_FW_F1_V1.8.0/Drivers/STM32F1xx_HAL_Driver/Src\stm32f1xx_hal_exti.c ****         (++) Configure the interrupt and/or event mode using "Mode" member from
  45:C:/Users/lenovo/STM32Cube/Repository/STM32Cube_FW_F1_V1.8.0/Drivers/STM32F1xx_HAL_Driver/Src\stm32f1xx_hal_exti.c ****              EXTI_ConfigTypeDef structure.
  46:C:/Users/lenovo/STM32Cube/Repository/STM32Cube_FW_F1_V1.8.0/Drivers/STM32F1xx_HAL_Driver/Src\stm32f1xx_hal_exti.c ****         (++) For configurable lines, configure rising and/or falling trigger
  47:C:/Users/lenovo/STM32Cube/Repository/STM32Cube_FW_F1_V1.8.0/Drivers/STM32F1xx_HAL_Driver/Src\stm32f1xx_hal_exti.c ****              "Trigger" member from EXTI_ConfigTypeDef structure.
  48:C:/Users/lenovo/STM32Cube/Repository/STM32Cube_FW_F1_V1.8.0/Drivers/STM32F1xx_HAL_Driver/Src\stm32f1xx_hal_exti.c ****         (++) For Exti lines linked to gpio, choose gpio port using "GPIOSel"
  49:C:/Users/lenovo/STM32Cube/Repository/STM32Cube_FW_F1_V1.8.0/Drivers/STM32F1xx_HAL_Driver/Src\stm32f1xx_hal_exti.c ****              member from GPIO_InitTypeDef structure.
  50:C:/Users/lenovo/STM32Cube/Repository/STM32Cube_FW_F1_V1.8.0/Drivers/STM32F1xx_HAL_Driver/Src\stm32f1xx_hal_exti.c **** 
  51:C:/Users/lenovo/STM32Cube/Repository/STM32Cube_FW_F1_V1.8.0/Drivers/STM32F1xx_HAL_Driver/Src\stm32f1xx_hal_exti.c ****     (#) Get current Exti configuration of a dedicated line using
  52:C:/Users/lenovo/STM32Cube/Repository/STM32Cube_FW_F1_V1.8.0/Drivers/STM32F1xx_HAL_Driver/Src\stm32f1xx_hal_exti.c ****         HAL_EXTI_GetConfigLine().
  53:C:/Users/lenovo/STM32Cube/Repository/STM32Cube_FW_F1_V1.8.0/Drivers/STM32F1xx_HAL_Driver/Src\stm32f1xx_hal_exti.c ****         (++) Provide exiting handle as parameter.
  54:C:/Users/lenovo/STM32Cube/Repository/STM32Cube_FW_F1_V1.8.0/Drivers/STM32F1xx_HAL_Driver/Src\stm32f1xx_hal_exti.c ****         (++) Provide pointer on EXTI_ConfigTypeDef structure as second parameter.
  55:C:/Users/lenovo/STM32Cube/Repository/STM32Cube_FW_F1_V1.8.0/Drivers/STM32F1xx_HAL_Driver/Src\stm32f1xx_hal_exti.c **** 
  56:C:/Users/lenovo/STM32Cube/Repository/STM32Cube_FW_F1_V1.8.0/Drivers/STM32F1xx_HAL_Driver/Src\stm32f1xx_hal_exti.c ****     (#) Clear Exti configuration of a dedicated line using HAL_EXTI_GetConfigLine().
  57:C:/Users/lenovo/STM32Cube/Repository/STM32Cube_FW_F1_V1.8.0/Drivers/STM32F1xx_HAL_Driver/Src\stm32f1xx_hal_exti.c ****         (++) Provide exiting handle as parameter.
  58:C:/Users/lenovo/STM32Cube/Repository/STM32Cube_FW_F1_V1.8.0/Drivers/STM32F1xx_HAL_Driver/Src\stm32f1xx_hal_exti.c **** 
  59:C:/Users/lenovo/STM32Cube/Repository/STM32Cube_FW_F1_V1.8.0/Drivers/STM32F1xx_HAL_Driver/Src\stm32f1xx_hal_exti.c ****     (#) Register callback to treat Exti interrupts using HAL_EXTI_RegisterCallback().
  60:C:/Users/lenovo/STM32Cube/Repository/STM32Cube_FW_F1_V1.8.0/Drivers/STM32F1xx_HAL_Driver/Src\stm32f1xx_hal_exti.c ****         (++) Provide exiting handle as first parameter.
  61:C:/Users/lenovo/STM32Cube/Repository/STM32Cube_FW_F1_V1.8.0/Drivers/STM32F1xx_HAL_Driver/Src\stm32f1xx_hal_exti.c ****         (++) Provide which callback will be registered using one value from
  62:C:/Users/lenovo/STM32Cube/Repository/STM32Cube_FW_F1_V1.8.0/Drivers/STM32F1xx_HAL_Driver/Src\stm32f1xx_hal_exti.c ****              EXTI_CallbackIDTypeDef.
  63:C:/Users/lenovo/STM32Cube/Repository/STM32Cube_FW_F1_V1.8.0/Drivers/STM32F1xx_HAL_Driver/Src\stm32f1xx_hal_exti.c ****         (++) Provide callback function pointer.
  64:C:/Users/lenovo/STM32Cube/Repository/STM32Cube_FW_F1_V1.8.0/Drivers/STM32F1xx_HAL_Driver/Src\stm32f1xx_hal_exti.c **** 
  65:C:/Users/lenovo/STM32Cube/Repository/STM32Cube_FW_F1_V1.8.0/Drivers/STM32F1xx_HAL_Driver/Src\stm32f1xx_hal_exti.c ****     (#) Get interrupt pending bit using HAL_EXTI_GetPending().
  66:C:/Users/lenovo/STM32Cube/Repository/STM32Cube_FW_F1_V1.8.0/Drivers/STM32F1xx_HAL_Driver/Src\stm32f1xx_hal_exti.c **** 
  67:C:/Users/lenovo/STM32Cube/Repository/STM32Cube_FW_F1_V1.8.0/Drivers/STM32F1xx_HAL_Driver/Src\stm32f1xx_hal_exti.c ****     (#) Clear interrupt pending bit using HAL_EXTI_GetPending().
  68:C:/Users/lenovo/STM32Cube/Repository/STM32Cube_FW_F1_V1.8.0/Drivers/STM32F1xx_HAL_Driver/Src\stm32f1xx_hal_exti.c **** 
  69:C:/Users/lenovo/STM32Cube/Repository/STM32Cube_FW_F1_V1.8.0/Drivers/STM32F1xx_HAL_Driver/Src\stm32f1xx_hal_exti.c ****     (#) Generate software interrupt using HAL_EXTI_GenerateSWI().
  70:C:/Users/lenovo/STM32Cube/Repository/STM32Cube_FW_F1_V1.8.0/Drivers/STM32F1xx_HAL_Driver/Src\stm32f1xx_hal_exti.c **** 
  71:C:/Users/lenovo/STM32Cube/Repository/STM32Cube_FW_F1_V1.8.0/Drivers/STM32F1xx_HAL_Driver/Src\stm32f1xx_hal_exti.c ****   @endverbatim
  72:C:/Users/lenovo/STM32Cube/Repository/STM32Cube_FW_F1_V1.8.0/Drivers/STM32F1xx_HAL_Driver/Src\stm32f1xx_hal_exti.c ****   ******************************************************************************
  73:C:/Users/lenovo/STM32Cube/Repository/STM32Cube_FW_F1_V1.8.0/Drivers/STM32F1xx_HAL_Driver/Src\stm32f1xx_hal_exti.c ****   * @attention
  74:C:/Users/lenovo/STM32Cube/Repository/STM32Cube_FW_F1_V1.8.0/Drivers/STM32F1xx_HAL_Driver/Src\stm32f1xx_hal_exti.c ****   *
  75:C:/Users/lenovo/STM32Cube/Repository/STM32Cube_FW_F1_V1.8.0/Drivers/STM32F1xx_HAL_Driver/Src\stm32f1xx_hal_exti.c ****   * <h2><center>&copy; Copyright (c) 2019 STMicroelectronics.
  76:C:/Users/lenovo/STM32Cube/Repository/STM32Cube_FW_F1_V1.8.0/Drivers/STM32F1xx_HAL_Driver/Src\stm32f1xx_hal_exti.c ****   * All rights reserved.</center></h2>
  77:C:/Users/lenovo/STM32Cube/Repository/STM32Cube_FW_F1_V1.8.0/Drivers/STM32F1xx_HAL_Driver/Src\stm32f1xx_hal_exti.c ****   *
  78:C:/Users/lenovo/STM32Cube/Repository/STM32Cube_FW_F1_V1.8.0/Drivers/STM32F1xx_HAL_Driver/Src\stm32f1xx_hal_exti.c ****   * This software component is licensed by ST under BSD 3-Clause license,
  79:C:/Users/lenovo/STM32Cube/Repository/STM32Cube_FW_F1_V1.8.0/Drivers/STM32F1xx_HAL_Driver/Src\stm32f1xx_hal_exti.c ****   * the "License"; You may not use this file except in compliance with the
  80:C:/Users/lenovo/STM32Cube/Repository/STM32Cube_FW_F1_V1.8.0/Drivers/STM32F1xx_HAL_Driver/Src\stm32f1xx_hal_exti.c ****   * License. You may obtain a copy of the License at:
  81:C:/Users/lenovo/STM32Cube/Repository/STM32Cube_FW_F1_V1.8.0/Drivers/STM32F1xx_HAL_Driver/Src\stm32f1xx_hal_exti.c ****   *                        opensource.org/licenses/BSD-3-Clause
  82:C:/Users/lenovo/STM32Cube/Repository/STM32Cube_FW_F1_V1.8.0/Drivers/STM32F1xx_HAL_Driver/Src\stm32f1xx_hal_exti.c ****   *
  83:C:/Users/lenovo/STM32Cube/Repository/STM32Cube_FW_F1_V1.8.0/Drivers/STM32F1xx_HAL_Driver/Src\stm32f1xx_hal_exti.c ****   ******************************************************************************
  84:C:/Users/lenovo/STM32Cube/Repository/STM32Cube_FW_F1_V1.8.0/Drivers/STM32F1xx_HAL_Driver/Src\stm32f1xx_hal_exti.c ****   */
  85:C:/Users/lenovo/STM32Cube/Repository/STM32Cube_FW_F1_V1.8.0/Drivers/STM32F1xx_HAL_Driver/Src\stm32f1xx_hal_exti.c **** 
  86:C:/Users/lenovo/STM32Cube/Repository/STM32Cube_FW_F1_V1.8.0/Drivers/STM32F1xx_HAL_Driver/Src\stm32f1xx_hal_exti.c **** /* Includes ------------------------------------------------------------------*/
  87:C:/Users/lenovo/STM32Cube/Repository/STM32Cube_FW_F1_V1.8.0/Drivers/STM32F1xx_HAL_Driver/Src\stm32f1xx_hal_exti.c **** #include "stm32f1xx_hal.h"
  88:C:/Users/lenovo/STM32Cube/Repository/STM32Cube_FW_F1_V1.8.0/Drivers/STM32F1xx_HAL_Driver/Src\stm32f1xx_hal_exti.c **** 
ARM GAS  C:\Users\lenovo\AppData\Local\Temp\ccvaGzQf.s 			page 3


  89:C:/Users/lenovo/STM32Cube/Repository/STM32Cube_FW_F1_V1.8.0/Drivers/STM32F1xx_HAL_Driver/Src\stm32f1xx_hal_exti.c **** /** @addtogroup STM32F1xx_HAL_Driver
  90:C:/Users/lenovo/STM32Cube/Repository/STM32Cube_FW_F1_V1.8.0/Drivers/STM32F1xx_HAL_Driver/Src\stm32f1xx_hal_exti.c ****   * @{
  91:C:/Users/lenovo/STM32Cube/Repository/STM32Cube_FW_F1_V1.8.0/Drivers/STM32F1xx_HAL_Driver/Src\stm32f1xx_hal_exti.c ****   */
  92:C:/Users/lenovo/STM32Cube/Repository/STM32Cube_FW_F1_V1.8.0/Drivers/STM32F1xx_HAL_Driver/Src\stm32f1xx_hal_exti.c **** 
  93:C:/Users/lenovo/STM32Cube/Repository/STM32Cube_FW_F1_V1.8.0/Drivers/STM32F1xx_HAL_Driver/Src\stm32f1xx_hal_exti.c **** /** @addtogroup EXTI
  94:C:/Users/lenovo/STM32Cube/Repository/STM32Cube_FW_F1_V1.8.0/Drivers/STM32F1xx_HAL_Driver/Src\stm32f1xx_hal_exti.c ****   * @{
  95:C:/Users/lenovo/STM32Cube/Repository/STM32Cube_FW_F1_V1.8.0/Drivers/STM32F1xx_HAL_Driver/Src\stm32f1xx_hal_exti.c ****   */
  96:C:/Users/lenovo/STM32Cube/Repository/STM32Cube_FW_F1_V1.8.0/Drivers/STM32F1xx_HAL_Driver/Src\stm32f1xx_hal_exti.c **** /** MISRA C:2012 deviation rule has been granted for following rule:
  97:C:/Users/lenovo/STM32Cube/Repository/STM32Cube_FW_F1_V1.8.0/Drivers/STM32F1xx_HAL_Driver/Src\stm32f1xx_hal_exti.c ****   * Rule-18.1_b - Medium: Array `EXTICR' 1st subscript interval [0,7] may be out
  98:C:/Users/lenovo/STM32Cube/Repository/STM32Cube_FW_F1_V1.8.0/Drivers/STM32F1xx_HAL_Driver/Src\stm32f1xx_hal_exti.c ****   * of bounds [0,3] in following API :
  99:C:/Users/lenovo/STM32Cube/Repository/STM32Cube_FW_F1_V1.8.0/Drivers/STM32F1xx_HAL_Driver/Src\stm32f1xx_hal_exti.c ****   * HAL_EXTI_SetConfigLine
 100:C:/Users/lenovo/STM32Cube/Repository/STM32Cube_FW_F1_V1.8.0/Drivers/STM32F1xx_HAL_Driver/Src\stm32f1xx_hal_exti.c ****   * HAL_EXTI_GetConfigLine
 101:C:/Users/lenovo/STM32Cube/Repository/STM32Cube_FW_F1_V1.8.0/Drivers/STM32F1xx_HAL_Driver/Src\stm32f1xx_hal_exti.c ****   * HAL_EXTI_ClearConfigLine
 102:C:/Users/lenovo/STM32Cube/Repository/STM32Cube_FW_F1_V1.8.0/Drivers/STM32F1xx_HAL_Driver/Src\stm32f1xx_hal_exti.c ****   */
 103:C:/Users/lenovo/STM32Cube/Repository/STM32Cube_FW_F1_V1.8.0/Drivers/STM32F1xx_HAL_Driver/Src\stm32f1xx_hal_exti.c **** 
 104:C:/Users/lenovo/STM32Cube/Repository/STM32Cube_FW_F1_V1.8.0/Drivers/STM32F1xx_HAL_Driver/Src\stm32f1xx_hal_exti.c **** #ifdef HAL_EXTI_MODULE_ENABLED
 105:C:/Users/lenovo/STM32Cube/Repository/STM32Cube_FW_F1_V1.8.0/Drivers/STM32F1xx_HAL_Driver/Src\stm32f1xx_hal_exti.c **** 
 106:C:/Users/lenovo/STM32Cube/Repository/STM32Cube_FW_F1_V1.8.0/Drivers/STM32F1xx_HAL_Driver/Src\stm32f1xx_hal_exti.c **** /* Private typedef -----------------------------------------------------------*/
 107:C:/Users/lenovo/STM32Cube/Repository/STM32Cube_FW_F1_V1.8.0/Drivers/STM32F1xx_HAL_Driver/Src\stm32f1xx_hal_exti.c **** /* Private defines -----------------------------------------------------------*/
 108:C:/Users/lenovo/STM32Cube/Repository/STM32Cube_FW_F1_V1.8.0/Drivers/STM32F1xx_HAL_Driver/Src\stm32f1xx_hal_exti.c **** /** @defgroup EXTI_Private_Constants EXTI Private Constants
 109:C:/Users/lenovo/STM32Cube/Repository/STM32Cube_FW_F1_V1.8.0/Drivers/STM32F1xx_HAL_Driver/Src\stm32f1xx_hal_exti.c ****   * @{
 110:C:/Users/lenovo/STM32Cube/Repository/STM32Cube_FW_F1_V1.8.0/Drivers/STM32F1xx_HAL_Driver/Src\stm32f1xx_hal_exti.c ****   */
 111:C:/Users/lenovo/STM32Cube/Repository/STM32Cube_FW_F1_V1.8.0/Drivers/STM32F1xx_HAL_Driver/Src\stm32f1xx_hal_exti.c **** 
 112:C:/Users/lenovo/STM32Cube/Repository/STM32Cube_FW_F1_V1.8.0/Drivers/STM32F1xx_HAL_Driver/Src\stm32f1xx_hal_exti.c **** /**
 113:C:/Users/lenovo/STM32Cube/Repository/STM32Cube_FW_F1_V1.8.0/Drivers/STM32F1xx_HAL_Driver/Src\stm32f1xx_hal_exti.c ****   * @}
 114:C:/Users/lenovo/STM32Cube/Repository/STM32Cube_FW_F1_V1.8.0/Drivers/STM32F1xx_HAL_Driver/Src\stm32f1xx_hal_exti.c ****   */
 115:C:/Users/lenovo/STM32Cube/Repository/STM32Cube_FW_F1_V1.8.0/Drivers/STM32F1xx_HAL_Driver/Src\stm32f1xx_hal_exti.c **** 
 116:C:/Users/lenovo/STM32Cube/Repository/STM32Cube_FW_F1_V1.8.0/Drivers/STM32F1xx_HAL_Driver/Src\stm32f1xx_hal_exti.c **** /* Private macros ------------------------------------------------------------*/
 117:C:/Users/lenovo/STM32Cube/Repository/STM32Cube_FW_F1_V1.8.0/Drivers/STM32F1xx_HAL_Driver/Src\stm32f1xx_hal_exti.c **** /* Private variables ---------------------------------------------------------*/
 118:C:/Users/lenovo/STM32Cube/Repository/STM32Cube_FW_F1_V1.8.0/Drivers/STM32F1xx_HAL_Driver/Src\stm32f1xx_hal_exti.c **** /* Private function prototypes -----------------------------------------------*/
 119:C:/Users/lenovo/STM32Cube/Repository/STM32Cube_FW_F1_V1.8.0/Drivers/STM32F1xx_HAL_Driver/Src\stm32f1xx_hal_exti.c **** /* Exported functions --------------------------------------------------------*/
 120:C:/Users/lenovo/STM32Cube/Repository/STM32Cube_FW_F1_V1.8.0/Drivers/STM32F1xx_HAL_Driver/Src\stm32f1xx_hal_exti.c **** 
 121:C:/Users/lenovo/STM32Cube/Repository/STM32Cube_FW_F1_V1.8.0/Drivers/STM32F1xx_HAL_Driver/Src\stm32f1xx_hal_exti.c **** /** @addtogroup EXTI_Exported_Functions
 122:C:/Users/lenovo/STM32Cube/Repository/STM32Cube_FW_F1_V1.8.0/Drivers/STM32F1xx_HAL_Driver/Src\stm32f1xx_hal_exti.c ****   * @{
 123:C:/Users/lenovo/STM32Cube/Repository/STM32Cube_FW_F1_V1.8.0/Drivers/STM32F1xx_HAL_Driver/Src\stm32f1xx_hal_exti.c ****   */
 124:C:/Users/lenovo/STM32Cube/Repository/STM32Cube_FW_F1_V1.8.0/Drivers/STM32F1xx_HAL_Driver/Src\stm32f1xx_hal_exti.c **** 
 125:C:/Users/lenovo/STM32Cube/Repository/STM32Cube_FW_F1_V1.8.0/Drivers/STM32F1xx_HAL_Driver/Src\stm32f1xx_hal_exti.c **** /** @addtogroup EXTI_Exported_Functions_Group1
 126:C:/Users/lenovo/STM32Cube/Repository/STM32Cube_FW_F1_V1.8.0/Drivers/STM32F1xx_HAL_Driver/Src\stm32f1xx_hal_exti.c ****   *  @brief    Configuration functions
 127:C:/Users/lenovo/STM32Cube/Repository/STM32Cube_FW_F1_V1.8.0/Drivers/STM32F1xx_HAL_Driver/Src\stm32f1xx_hal_exti.c ****   *
 128:C:/Users/lenovo/STM32Cube/Repository/STM32Cube_FW_F1_V1.8.0/Drivers/STM32F1xx_HAL_Driver/Src\stm32f1xx_hal_exti.c **** @verbatim
 129:C:/Users/lenovo/STM32Cube/Repository/STM32Cube_FW_F1_V1.8.0/Drivers/STM32F1xx_HAL_Driver/Src\stm32f1xx_hal_exti.c ****  ===============================================================================
 130:C:/Users/lenovo/STM32Cube/Repository/STM32Cube_FW_F1_V1.8.0/Drivers/STM32F1xx_HAL_Driver/Src\stm32f1xx_hal_exti.c ****               ##### Configuration functions #####
 131:C:/Users/lenovo/STM32Cube/Repository/STM32Cube_FW_F1_V1.8.0/Drivers/STM32F1xx_HAL_Driver/Src\stm32f1xx_hal_exti.c ****  ===============================================================================
 132:C:/Users/lenovo/STM32Cube/Repository/STM32Cube_FW_F1_V1.8.0/Drivers/STM32F1xx_HAL_Driver/Src\stm32f1xx_hal_exti.c **** 
 133:C:/Users/lenovo/STM32Cube/Repository/STM32Cube_FW_F1_V1.8.0/Drivers/STM32F1xx_HAL_Driver/Src\stm32f1xx_hal_exti.c **** @endverbatim
 134:C:/Users/lenovo/STM32Cube/Repository/STM32Cube_FW_F1_V1.8.0/Drivers/STM32F1xx_HAL_Driver/Src\stm32f1xx_hal_exti.c ****   * @{
 135:C:/Users/lenovo/STM32Cube/Repository/STM32Cube_FW_F1_V1.8.0/Drivers/STM32F1xx_HAL_Driver/Src\stm32f1xx_hal_exti.c ****   */
 136:C:/Users/lenovo/STM32Cube/Repository/STM32Cube_FW_F1_V1.8.0/Drivers/STM32F1xx_HAL_Driver/Src\stm32f1xx_hal_exti.c **** 
 137:C:/Users/lenovo/STM32Cube/Repository/STM32Cube_FW_F1_V1.8.0/Drivers/STM32F1xx_HAL_Driver/Src\stm32f1xx_hal_exti.c **** /**
 138:C:/Users/lenovo/STM32Cube/Repository/STM32Cube_FW_F1_V1.8.0/Drivers/STM32F1xx_HAL_Driver/Src\stm32f1xx_hal_exti.c ****   * @brief  Set configuration of a dedicated Exti line.
 139:C:/Users/lenovo/STM32Cube/Repository/STM32Cube_FW_F1_V1.8.0/Drivers/STM32F1xx_HAL_Driver/Src\stm32f1xx_hal_exti.c ****   * @param  hexti Exti handle.
 140:C:/Users/lenovo/STM32Cube/Repository/STM32Cube_FW_F1_V1.8.0/Drivers/STM32F1xx_HAL_Driver/Src\stm32f1xx_hal_exti.c ****   * @param  pExtiConfig Pointer on EXTI configuration to be set.
 141:C:/Users/lenovo/STM32Cube/Repository/STM32Cube_FW_F1_V1.8.0/Drivers/STM32F1xx_HAL_Driver/Src\stm32f1xx_hal_exti.c ****   * @retval HAL Status.
 142:C:/Users/lenovo/STM32Cube/Repository/STM32Cube_FW_F1_V1.8.0/Drivers/STM32F1xx_HAL_Driver/Src\stm32f1xx_hal_exti.c ****   */
 143:C:/Users/lenovo/STM32Cube/Repository/STM32Cube_FW_F1_V1.8.0/Drivers/STM32F1xx_HAL_Driver/Src\stm32f1xx_hal_exti.c **** HAL_StatusTypeDef HAL_EXTI_SetConfigLine(EXTI_HandleTypeDef *hexti, EXTI_ConfigTypeDef *pExtiConfig
 144:C:/Users/lenovo/STM32Cube/Repository/STM32Cube_FW_F1_V1.8.0/Drivers/STM32F1xx_HAL_Driver/Src\stm32f1xx_hal_exti.c **** {
  28              		.loc 1 144 1 view -0
ARM GAS  C:\Users\lenovo\AppData\Local\Temp\ccvaGzQf.s 			page 4


  29              		.cfi_startproc
  30              		@ args = 0, pretend = 0, frame = 0
  31              		@ frame_needed = 0, uses_anonymous_args = 0
  32              		@ link register save eliminated.
 145:C:/Users/lenovo/STM32Cube/Repository/STM32Cube_FW_F1_V1.8.0/Drivers/STM32F1xx_HAL_Driver/Src\stm32f1xx_hal_exti.c ****   uint32_t regval;
  33              		.loc 1 145 3 view .LVU1
 146:C:/Users/lenovo/STM32Cube/Repository/STM32Cube_FW_F1_V1.8.0/Drivers/STM32F1xx_HAL_Driver/Src\stm32f1xx_hal_exti.c ****   uint32_t linepos;
  34              		.loc 1 146 3 view .LVU2
 147:C:/Users/lenovo/STM32Cube/Repository/STM32Cube_FW_F1_V1.8.0/Drivers/STM32F1xx_HAL_Driver/Src\stm32f1xx_hal_exti.c ****   uint32_t maskline;
  35              		.loc 1 147 3 view .LVU3
 148:C:/Users/lenovo/STM32Cube/Repository/STM32Cube_FW_F1_V1.8.0/Drivers/STM32F1xx_HAL_Driver/Src\stm32f1xx_hal_exti.c **** 
 149:C:/Users/lenovo/STM32Cube/Repository/STM32Cube_FW_F1_V1.8.0/Drivers/STM32F1xx_HAL_Driver/Src\stm32f1xx_hal_exti.c ****   /* Check null pointer */
 150:C:/Users/lenovo/STM32Cube/Repository/STM32Cube_FW_F1_V1.8.0/Drivers/STM32F1xx_HAL_Driver/Src\stm32f1xx_hal_exti.c ****   if ((hexti == NULL) || (pExtiConfig == NULL))
  36              		.loc 1 150 3 view .LVU4
  37              		.loc 1 150 6 is_stmt 0 view .LVU5
  38 0000 0028     		cmp	r0, #0
  39 0002 60D0     		beq	.L11
  40              		.loc 1 150 23 discriminator 1 view .LVU6
  41 0004 0029     		cmp	r1, #0
  42 0006 60D0     		beq	.L12
 144:C:/Users/lenovo/STM32Cube/Repository/STM32Cube_FW_F1_V1.8.0/Drivers/STM32F1xx_HAL_Driver/Src\stm32f1xx_hal_exti.c ****   uint32_t regval;
  43              		.loc 1 144 1 view .LVU7
  44 0008 70B4     		push	{r4, r5, r6}
  45              	.LCFI0:
  46              		.cfi_def_cfa_offset 12
  47              		.cfi_offset 4, -12
  48              		.cfi_offset 5, -8
  49              		.cfi_offset 6, -4
 151:C:/Users/lenovo/STM32Cube/Repository/STM32Cube_FW_F1_V1.8.0/Drivers/STM32F1xx_HAL_Driver/Src\stm32f1xx_hal_exti.c ****   {
 152:C:/Users/lenovo/STM32Cube/Repository/STM32Cube_FW_F1_V1.8.0/Drivers/STM32F1xx_HAL_Driver/Src\stm32f1xx_hal_exti.c ****     return HAL_ERROR;
 153:C:/Users/lenovo/STM32Cube/Repository/STM32Cube_FW_F1_V1.8.0/Drivers/STM32F1xx_HAL_Driver/Src\stm32f1xx_hal_exti.c ****   }
 154:C:/Users/lenovo/STM32Cube/Repository/STM32Cube_FW_F1_V1.8.0/Drivers/STM32F1xx_HAL_Driver/Src\stm32f1xx_hal_exti.c **** 
 155:C:/Users/lenovo/STM32Cube/Repository/STM32Cube_FW_F1_V1.8.0/Drivers/STM32F1xx_HAL_Driver/Src\stm32f1xx_hal_exti.c ****   /* Check parameters */
 156:C:/Users/lenovo/STM32Cube/Repository/STM32Cube_FW_F1_V1.8.0/Drivers/STM32F1xx_HAL_Driver/Src\stm32f1xx_hal_exti.c ****   assert_param(IS_EXTI_LINE(pExtiConfig->Line));
  50              		.loc 1 156 3 is_stmt 1 view .LVU8
 157:C:/Users/lenovo/STM32Cube/Repository/STM32Cube_FW_F1_V1.8.0/Drivers/STM32F1xx_HAL_Driver/Src\stm32f1xx_hal_exti.c ****   assert_param(IS_EXTI_MODE(pExtiConfig->Mode));
  51              		.loc 1 157 3 view .LVU9
 158:C:/Users/lenovo/STM32Cube/Repository/STM32Cube_FW_F1_V1.8.0/Drivers/STM32F1xx_HAL_Driver/Src\stm32f1xx_hal_exti.c **** 
 159:C:/Users/lenovo/STM32Cube/Repository/STM32Cube_FW_F1_V1.8.0/Drivers/STM32F1xx_HAL_Driver/Src\stm32f1xx_hal_exti.c ****   /* Assign line number to handle */
 160:C:/Users/lenovo/STM32Cube/Repository/STM32Cube_FW_F1_V1.8.0/Drivers/STM32F1xx_HAL_Driver/Src\stm32f1xx_hal_exti.c ****   hexti->Line = pExtiConfig->Line;
  52              		.loc 1 160 3 view .LVU10
  53              		.loc 1 160 28 is_stmt 0 view .LVU11
  54 000a 0B68     		ldr	r3, [r1]
  55              		.loc 1 160 15 view .LVU12
  56 000c 0360     		str	r3, [r0]
 161:C:/Users/lenovo/STM32Cube/Repository/STM32Cube_FW_F1_V1.8.0/Drivers/STM32F1xx_HAL_Driver/Src\stm32f1xx_hal_exti.c **** 
 162:C:/Users/lenovo/STM32Cube/Repository/STM32Cube_FW_F1_V1.8.0/Drivers/STM32F1xx_HAL_Driver/Src\stm32f1xx_hal_exti.c ****   /* Compute line mask */
 163:C:/Users/lenovo/STM32Cube/Repository/STM32Cube_FW_F1_V1.8.0/Drivers/STM32F1xx_HAL_Driver/Src\stm32f1xx_hal_exti.c ****   linepos = (pExtiConfig->Line & EXTI_PIN_MASK);
  57              		.loc 1 163 3 is_stmt 1 view .LVU13
  58              		.loc 1 163 11 is_stmt 0 view .LVU14
  59 000e 03F01F02 		and	r2, r3, #31
  60              	.LVL1:
 164:C:/Users/lenovo/STM32Cube/Repository/STM32Cube_FW_F1_V1.8.0/Drivers/STM32F1xx_HAL_Driver/Src\stm32f1xx_hal_exti.c ****   maskline = (1uL << linepos);
  61              		.loc 1 164 3 is_stmt 1 view .LVU15
  62              		.loc 1 164 12 is_stmt 0 view .LVU16
  63 0012 0120     		movs	r0, #1
  64              	.LVL2:
ARM GAS  C:\Users\lenovo\AppData\Local\Temp\ccvaGzQf.s 			page 5


  65              		.loc 1 164 12 view .LVU17
  66 0014 9040     		lsls	r0, r0, r2
  67              	.LVL3:
 165:C:/Users/lenovo/STM32Cube/Repository/STM32Cube_FW_F1_V1.8.0/Drivers/STM32F1xx_HAL_Driver/Src\stm32f1xx_hal_exti.c **** 
 166:C:/Users/lenovo/STM32Cube/Repository/STM32Cube_FW_F1_V1.8.0/Drivers/STM32F1xx_HAL_Driver/Src\stm32f1xx_hal_exti.c ****   /* Configure triggers for configurable lines */
 167:C:/Users/lenovo/STM32Cube/Repository/STM32Cube_FW_F1_V1.8.0/Drivers/STM32F1xx_HAL_Driver/Src\stm32f1xx_hal_exti.c ****   if ((pExtiConfig->Line & EXTI_CONFIG) != 0x00u)
  68              		.loc 1 167 3 is_stmt 1 view .LVU18
  69              		.loc 1 167 6 is_stmt 0 view .LVU19
  70 0016 13F0007F 		tst	r3, #33554432
  71 001a 15D0     		beq	.L3
 168:C:/Users/lenovo/STM32Cube/Repository/STM32Cube_FW_F1_V1.8.0/Drivers/STM32F1xx_HAL_Driver/Src\stm32f1xx_hal_exti.c ****   {
 169:C:/Users/lenovo/STM32Cube/Repository/STM32Cube_FW_F1_V1.8.0/Drivers/STM32F1xx_HAL_Driver/Src\stm32f1xx_hal_exti.c ****     assert_param(IS_EXTI_TRIGGER(pExtiConfig->Trigger));
  72              		.loc 1 169 5 is_stmt 1 view .LVU20
 170:C:/Users/lenovo/STM32Cube/Repository/STM32Cube_FW_F1_V1.8.0/Drivers/STM32F1xx_HAL_Driver/Src\stm32f1xx_hal_exti.c **** 
 171:C:/Users/lenovo/STM32Cube/Repository/STM32Cube_FW_F1_V1.8.0/Drivers/STM32F1xx_HAL_Driver/Src\stm32f1xx_hal_exti.c ****     /* Configure rising trigger */
 172:C:/Users/lenovo/STM32Cube/Repository/STM32Cube_FW_F1_V1.8.0/Drivers/STM32F1xx_HAL_Driver/Src\stm32f1xx_hal_exti.c ****     /* Mask or set line */
 173:C:/Users/lenovo/STM32Cube/Repository/STM32Cube_FW_F1_V1.8.0/Drivers/STM32F1xx_HAL_Driver/Src\stm32f1xx_hal_exti.c ****     if ((pExtiConfig->Trigger & EXTI_TRIGGER_RISING) != 0x00u)
  73              		.loc 1 173 5 view .LVU21
  74              		.loc 1 173 8 is_stmt 0 view .LVU22
  75 001c 8C68     		ldr	r4, [r1, #8]
  76 001e 14F0010F 		tst	r4, #1
  77 0022 24D0     		beq	.L4
 174:C:/Users/lenovo/STM32Cube/Repository/STM32Cube_FW_F1_V1.8.0/Drivers/STM32F1xx_HAL_Driver/Src\stm32f1xx_hal_exti.c ****     {
 175:C:/Users/lenovo/STM32Cube/Repository/STM32Cube_FW_F1_V1.8.0/Drivers/STM32F1xx_HAL_Driver/Src\stm32f1xx_hal_exti.c ****       EXTI->RTSR |= maskline;
  78              		.loc 1 175 7 is_stmt 1 view .LVU23
  79              		.loc 1 175 18 is_stmt 0 view .LVU24
  80 0024 2A4D     		ldr	r5, .L18
  81 0026 AC68     		ldr	r4, [r5, #8]
  82 0028 0443     		orrs	r4, r4, r0
  83 002a AC60     		str	r4, [r5, #8]
  84              	.L5:
 176:C:/Users/lenovo/STM32Cube/Repository/STM32Cube_FW_F1_V1.8.0/Drivers/STM32F1xx_HAL_Driver/Src\stm32f1xx_hal_exti.c ****     }
 177:C:/Users/lenovo/STM32Cube/Repository/STM32Cube_FW_F1_V1.8.0/Drivers/STM32F1xx_HAL_Driver/Src\stm32f1xx_hal_exti.c ****     else
 178:C:/Users/lenovo/STM32Cube/Repository/STM32Cube_FW_F1_V1.8.0/Drivers/STM32F1xx_HAL_Driver/Src\stm32f1xx_hal_exti.c ****     {
 179:C:/Users/lenovo/STM32Cube/Repository/STM32Cube_FW_F1_V1.8.0/Drivers/STM32F1xx_HAL_Driver/Src\stm32f1xx_hal_exti.c ****       EXTI->RTSR &= ~maskline;
 180:C:/Users/lenovo/STM32Cube/Repository/STM32Cube_FW_F1_V1.8.0/Drivers/STM32F1xx_HAL_Driver/Src\stm32f1xx_hal_exti.c ****     }
 181:C:/Users/lenovo/STM32Cube/Repository/STM32Cube_FW_F1_V1.8.0/Drivers/STM32F1xx_HAL_Driver/Src\stm32f1xx_hal_exti.c **** 
 182:C:/Users/lenovo/STM32Cube/Repository/STM32Cube_FW_F1_V1.8.0/Drivers/STM32F1xx_HAL_Driver/Src\stm32f1xx_hal_exti.c ****     /* Configure falling trigger */
 183:C:/Users/lenovo/STM32Cube/Repository/STM32Cube_FW_F1_V1.8.0/Drivers/STM32F1xx_HAL_Driver/Src\stm32f1xx_hal_exti.c ****     /* Mask or set line */
 184:C:/Users/lenovo/STM32Cube/Repository/STM32Cube_FW_F1_V1.8.0/Drivers/STM32F1xx_HAL_Driver/Src\stm32f1xx_hal_exti.c ****     if ((pExtiConfig->Trigger & EXTI_TRIGGER_FALLING) != 0x00u)
  85              		.loc 1 184 5 is_stmt 1 view .LVU25
  86              		.loc 1 184 8 is_stmt 0 view .LVU26
  87 002c 8C68     		ldr	r4, [r1, #8]
  88 002e 14F0020F 		tst	r4, #2
  89 0032 22D0     		beq	.L6
 185:C:/Users/lenovo/STM32Cube/Repository/STM32Cube_FW_F1_V1.8.0/Drivers/STM32F1xx_HAL_Driver/Src\stm32f1xx_hal_exti.c ****     {
 186:C:/Users/lenovo/STM32Cube/Repository/STM32Cube_FW_F1_V1.8.0/Drivers/STM32F1xx_HAL_Driver/Src\stm32f1xx_hal_exti.c ****       EXTI->FTSR |= maskline;
  90              		.loc 1 186 7 is_stmt 1 view .LVU27
  91              		.loc 1 186 18 is_stmt 0 view .LVU28
  92 0034 264D     		ldr	r5, .L18
  93 0036 EC68     		ldr	r4, [r5, #12]
  94 0038 0443     		orrs	r4, r4, r0
  95 003a EC60     		str	r4, [r5, #12]
  96              	.L7:
 187:C:/Users/lenovo/STM32Cube/Repository/STM32Cube_FW_F1_V1.8.0/Drivers/STM32F1xx_HAL_Driver/Src\stm32f1xx_hal_exti.c ****     }
 188:C:/Users/lenovo/STM32Cube/Repository/STM32Cube_FW_F1_V1.8.0/Drivers/STM32F1xx_HAL_Driver/Src\stm32f1xx_hal_exti.c ****     else
 189:C:/Users/lenovo/STM32Cube/Repository/STM32Cube_FW_F1_V1.8.0/Drivers/STM32F1xx_HAL_Driver/Src\stm32f1xx_hal_exti.c ****     {
ARM GAS  C:\Users\lenovo\AppData\Local\Temp\ccvaGzQf.s 			page 6


 190:C:/Users/lenovo/STM32Cube/Repository/STM32Cube_FW_F1_V1.8.0/Drivers/STM32F1xx_HAL_Driver/Src\stm32f1xx_hal_exti.c ****       EXTI->FTSR &= ~maskline;
 191:C:/Users/lenovo/STM32Cube/Repository/STM32Cube_FW_F1_V1.8.0/Drivers/STM32F1xx_HAL_Driver/Src\stm32f1xx_hal_exti.c ****     }
 192:C:/Users/lenovo/STM32Cube/Repository/STM32Cube_FW_F1_V1.8.0/Drivers/STM32F1xx_HAL_Driver/Src\stm32f1xx_hal_exti.c **** 
 193:C:/Users/lenovo/STM32Cube/Repository/STM32Cube_FW_F1_V1.8.0/Drivers/STM32F1xx_HAL_Driver/Src\stm32f1xx_hal_exti.c **** 
 194:C:/Users/lenovo/STM32Cube/Repository/STM32Cube_FW_F1_V1.8.0/Drivers/STM32F1xx_HAL_Driver/Src\stm32f1xx_hal_exti.c ****     /* Configure gpio port selection in case of gpio exti line */
 195:C:/Users/lenovo/STM32Cube/Repository/STM32Cube_FW_F1_V1.8.0/Drivers/STM32F1xx_HAL_Driver/Src\stm32f1xx_hal_exti.c ****     if ((pExtiConfig->Line & EXTI_GPIO) == EXTI_GPIO)
  97              		.loc 1 195 5 is_stmt 1 view .LVU29
  98              		.loc 1 195 28 is_stmt 0 view .LVU30
  99 003c 0C68     		ldr	r4, [r1]
 100 003e 04F0C06C 		and	ip, r4, #100663296
 101              		.loc 1 195 8 view .LVU31
 102 0042 BCF1C06F 		cmp	ip, #100663296
 103 0046 1ED0     		beq	.L17
 104              	.LVL4:
 105              	.L3:
 196:C:/Users/lenovo/STM32Cube/Repository/STM32Cube_FW_F1_V1.8.0/Drivers/STM32F1xx_HAL_Driver/Src\stm32f1xx_hal_exti.c ****     {
 197:C:/Users/lenovo/STM32Cube/Repository/STM32Cube_FW_F1_V1.8.0/Drivers/STM32F1xx_HAL_Driver/Src\stm32f1xx_hal_exti.c ****       assert_param(IS_EXTI_GPIO_PORT(pExtiConfig->GPIOSel));
 198:C:/Users/lenovo/STM32Cube/Repository/STM32Cube_FW_F1_V1.8.0/Drivers/STM32F1xx_HAL_Driver/Src\stm32f1xx_hal_exti.c ****       assert_param(IS_EXTI_GPIO_PIN(linepos));
 199:C:/Users/lenovo/STM32Cube/Repository/STM32Cube_FW_F1_V1.8.0/Drivers/STM32F1xx_HAL_Driver/Src\stm32f1xx_hal_exti.c ****       
 200:C:/Users/lenovo/STM32Cube/Repository/STM32Cube_FW_F1_V1.8.0/Drivers/STM32F1xx_HAL_Driver/Src\stm32f1xx_hal_exti.c ****       regval = AFIO->EXTICR[linepos >> 2u];
 201:C:/Users/lenovo/STM32Cube/Repository/STM32Cube_FW_F1_V1.8.0/Drivers/STM32F1xx_HAL_Driver/Src\stm32f1xx_hal_exti.c ****       regval &= ~(AFIO_EXTICR1_EXTI0 << (AFIO_EXTICR1_EXTI1_Pos * (linepos & 0x03u)));
 202:C:/Users/lenovo/STM32Cube/Repository/STM32Cube_FW_F1_V1.8.0/Drivers/STM32F1xx_HAL_Driver/Src\stm32f1xx_hal_exti.c ****       regval |= (pExtiConfig->GPIOSel << (AFIO_EXTICR1_EXTI1_Pos * (linepos & 0x03u)));
 203:C:/Users/lenovo/STM32Cube/Repository/STM32Cube_FW_F1_V1.8.0/Drivers/STM32F1xx_HAL_Driver/Src\stm32f1xx_hal_exti.c ****       AFIO->EXTICR[linepos >> 2u] = regval;
 204:C:/Users/lenovo/STM32Cube/Repository/STM32Cube_FW_F1_V1.8.0/Drivers/STM32F1xx_HAL_Driver/Src\stm32f1xx_hal_exti.c ****     }
 205:C:/Users/lenovo/STM32Cube/Repository/STM32Cube_FW_F1_V1.8.0/Drivers/STM32F1xx_HAL_Driver/Src\stm32f1xx_hal_exti.c ****   }
 206:C:/Users/lenovo/STM32Cube/Repository/STM32Cube_FW_F1_V1.8.0/Drivers/STM32F1xx_HAL_Driver/Src\stm32f1xx_hal_exti.c **** 
 207:C:/Users/lenovo/STM32Cube/Repository/STM32Cube_FW_F1_V1.8.0/Drivers/STM32F1xx_HAL_Driver/Src\stm32f1xx_hal_exti.c ****   /* Configure interrupt mode : read current mode */
 208:C:/Users/lenovo/STM32Cube/Repository/STM32Cube_FW_F1_V1.8.0/Drivers/STM32F1xx_HAL_Driver/Src\stm32f1xx_hal_exti.c ****   /* Mask or set line */
 209:C:/Users/lenovo/STM32Cube/Repository/STM32Cube_FW_F1_V1.8.0/Drivers/STM32F1xx_HAL_Driver/Src\stm32f1xx_hal_exti.c ****   if ((pExtiConfig->Mode & EXTI_MODE_INTERRUPT) != 0x00u)
 106              		.loc 1 209 3 is_stmt 1 view .LVU32
 107              		.loc 1 209 19 is_stmt 0 view .LVU33
 108 0048 4B68     		ldr	r3, [r1, #4]
 109              		.loc 1 209 6 view .LVU34
 110 004a 13F0010F 		tst	r3, #1
 111 004e 2DD0     		beq	.L8
 210:C:/Users/lenovo/STM32Cube/Repository/STM32Cube_FW_F1_V1.8.0/Drivers/STM32F1xx_HAL_Driver/Src\stm32f1xx_hal_exti.c ****   {
 211:C:/Users/lenovo/STM32Cube/Repository/STM32Cube_FW_F1_V1.8.0/Drivers/STM32F1xx_HAL_Driver/Src\stm32f1xx_hal_exti.c ****     EXTI->IMR |= maskline;
 112              		.loc 1 211 5 is_stmt 1 view .LVU35
 113              		.loc 1 211 15 is_stmt 0 view .LVU36
 114 0050 1F4A     		ldr	r2, .L18
 115 0052 1368     		ldr	r3, [r2]
 116 0054 0343     		orrs	r3, r3, r0
 117 0056 1360     		str	r3, [r2]
 118              	.L9:
 212:C:/Users/lenovo/STM32Cube/Repository/STM32Cube_FW_F1_V1.8.0/Drivers/STM32F1xx_HAL_Driver/Src\stm32f1xx_hal_exti.c ****   }
 213:C:/Users/lenovo/STM32Cube/Repository/STM32Cube_FW_F1_V1.8.0/Drivers/STM32F1xx_HAL_Driver/Src\stm32f1xx_hal_exti.c ****   else
 214:C:/Users/lenovo/STM32Cube/Repository/STM32Cube_FW_F1_V1.8.0/Drivers/STM32F1xx_HAL_Driver/Src\stm32f1xx_hal_exti.c ****   {
 215:C:/Users/lenovo/STM32Cube/Repository/STM32Cube_FW_F1_V1.8.0/Drivers/STM32F1xx_HAL_Driver/Src\stm32f1xx_hal_exti.c ****     EXTI->IMR &= ~maskline;
 216:C:/Users/lenovo/STM32Cube/Repository/STM32Cube_FW_F1_V1.8.0/Drivers/STM32F1xx_HAL_Driver/Src\stm32f1xx_hal_exti.c ****   }
 217:C:/Users/lenovo/STM32Cube/Repository/STM32Cube_FW_F1_V1.8.0/Drivers/STM32F1xx_HAL_Driver/Src\stm32f1xx_hal_exti.c **** 
 218:C:/Users/lenovo/STM32Cube/Repository/STM32Cube_FW_F1_V1.8.0/Drivers/STM32F1xx_HAL_Driver/Src\stm32f1xx_hal_exti.c ****   /* Configure event mode : read current mode */
 219:C:/Users/lenovo/STM32Cube/Repository/STM32Cube_FW_F1_V1.8.0/Drivers/STM32F1xx_HAL_Driver/Src\stm32f1xx_hal_exti.c ****   /* Mask or set line */
 220:C:/Users/lenovo/STM32Cube/Repository/STM32Cube_FW_F1_V1.8.0/Drivers/STM32F1xx_HAL_Driver/Src\stm32f1xx_hal_exti.c ****   if ((pExtiConfig->Mode & EXTI_MODE_EVENT) != 0x00u)
 119              		.loc 1 220 3 is_stmt 1 view .LVU37
 120              		.loc 1 220 19 is_stmt 0 view .LVU38
 121 0058 4B68     		ldr	r3, [r1, #4]
 122              		.loc 1 220 6 view .LVU39
ARM GAS  C:\Users\lenovo\AppData\Local\Temp\ccvaGzQf.s 			page 7


 123 005a 13F0020F 		tst	r3, #2
 124 005e 2BD0     		beq	.L10
 221:C:/Users/lenovo/STM32Cube/Repository/STM32Cube_FW_F1_V1.8.0/Drivers/STM32F1xx_HAL_Driver/Src\stm32f1xx_hal_exti.c ****   {
 222:C:/Users/lenovo/STM32Cube/Repository/STM32Cube_FW_F1_V1.8.0/Drivers/STM32F1xx_HAL_Driver/Src\stm32f1xx_hal_exti.c ****     EXTI->EMR |= maskline;
 125              		.loc 1 222 5 is_stmt 1 view .LVU40
 126              		.loc 1 222 15 is_stmt 0 view .LVU41
 127 0060 1B4A     		ldr	r2, .L18
 128 0062 5368     		ldr	r3, [r2, #4]
 129 0064 1843     		orrs	r0, r0, r3
 130              	.LVL5:
 131              		.loc 1 222 15 view .LVU42
 132 0066 5060     		str	r0, [r2, #4]
 223:C:/Users/lenovo/STM32Cube/Repository/STM32Cube_FW_F1_V1.8.0/Drivers/STM32F1xx_HAL_Driver/Src\stm32f1xx_hal_exti.c ****   }
 224:C:/Users/lenovo/STM32Cube/Repository/STM32Cube_FW_F1_V1.8.0/Drivers/STM32F1xx_HAL_Driver/Src\stm32f1xx_hal_exti.c ****   else
 225:C:/Users/lenovo/STM32Cube/Repository/STM32Cube_FW_F1_V1.8.0/Drivers/STM32F1xx_HAL_Driver/Src\stm32f1xx_hal_exti.c ****   {
 226:C:/Users/lenovo/STM32Cube/Repository/STM32Cube_FW_F1_V1.8.0/Drivers/STM32F1xx_HAL_Driver/Src\stm32f1xx_hal_exti.c ****     EXTI->EMR &= ~maskline;
 227:C:/Users/lenovo/STM32Cube/Repository/STM32Cube_FW_F1_V1.8.0/Drivers/STM32F1xx_HAL_Driver/Src\stm32f1xx_hal_exti.c ****   }
 228:C:/Users/lenovo/STM32Cube/Repository/STM32Cube_FW_F1_V1.8.0/Drivers/STM32F1xx_HAL_Driver/Src\stm32f1xx_hal_exti.c **** 
 229:C:/Users/lenovo/STM32Cube/Repository/STM32Cube_FW_F1_V1.8.0/Drivers/STM32F1xx_HAL_Driver/Src\stm32f1xx_hal_exti.c ****   return HAL_OK;
 133              		.loc 1 229 10 view .LVU43
 134 0068 0020     		movs	r0, #0
 135              	.L2:
 230:C:/Users/lenovo/STM32Cube/Repository/STM32Cube_FW_F1_V1.8.0/Drivers/STM32F1xx_HAL_Driver/Src\stm32f1xx_hal_exti.c **** }
 136              		.loc 1 230 1 view .LVU44
 137 006a 70BC     		pop	{r4, r5, r6}
 138              	.LCFI1:
 139              		.cfi_remember_state
 140              		.cfi_restore 6
 141              		.cfi_restore 5
 142              		.cfi_restore 4
 143              		.cfi_def_cfa_offset 0
 144 006c 7047     		bx	lr
 145              	.LVL6:
 146              	.L4:
 147              	.LCFI2:
 148              		.cfi_restore_state
 179:C:/Users/lenovo/STM32Cube/Repository/STM32Cube_FW_F1_V1.8.0/Drivers/STM32F1xx_HAL_Driver/Src\stm32f1xx_hal_exti.c ****     }
 149              		.loc 1 179 7 is_stmt 1 view .LVU45
 179:C:/Users/lenovo/STM32Cube/Repository/STM32Cube_FW_F1_V1.8.0/Drivers/STM32F1xx_HAL_Driver/Src\stm32f1xx_hal_exti.c ****     }
 150              		.loc 1 179 18 is_stmt 0 view .LVU46
 151 006e 184D     		ldr	r5, .L18
 152 0070 AC68     		ldr	r4, [r5, #8]
 153 0072 24EA0004 		bic	r4, r4, r0
 154 0076 AC60     		str	r4, [r5, #8]
 155 0078 D8E7     		b	.L5
 156              	.L6:
 190:C:/Users/lenovo/STM32Cube/Repository/STM32Cube_FW_F1_V1.8.0/Drivers/STM32F1xx_HAL_Driver/Src\stm32f1xx_hal_exti.c ****     }
 157              		.loc 1 190 7 is_stmt 1 view .LVU47
 190:C:/Users/lenovo/STM32Cube/Repository/STM32Cube_FW_F1_V1.8.0/Drivers/STM32F1xx_HAL_Driver/Src\stm32f1xx_hal_exti.c ****     }
 158              		.loc 1 190 18 is_stmt 0 view .LVU48
 159 007a 154D     		ldr	r5, .L18
 160 007c EC68     		ldr	r4, [r5, #12]
 161 007e 24EA0004 		bic	r4, r4, r0
 162 0082 EC60     		str	r4, [r5, #12]
 163 0084 DAE7     		b	.L7
 164              	.L17:
 197:C:/Users/lenovo/STM32Cube/Repository/STM32Cube_FW_F1_V1.8.0/Drivers/STM32F1xx_HAL_Driver/Src\stm32f1xx_hal_exti.c ****       assert_param(IS_EXTI_GPIO_PIN(linepos));
ARM GAS  C:\Users\lenovo\AppData\Local\Temp\ccvaGzQf.s 			page 8


 165              		.loc 1 197 7 is_stmt 1 view .LVU49
 198:C:/Users/lenovo/STM32Cube/Repository/STM32Cube_FW_F1_V1.8.0/Drivers/STM32F1xx_HAL_Driver/Src\stm32f1xx_hal_exti.c ****       
 166              		.loc 1 198 7 view .LVU50
 200:C:/Users/lenovo/STM32Cube/Repository/STM32Cube_FW_F1_V1.8.0/Drivers/STM32F1xx_HAL_Driver/Src\stm32f1xx_hal_exti.c ****       regval &= ~(AFIO_EXTICR1_EXTI0 << (AFIO_EXTICR1_EXTI1_Pos * (linepos & 0x03u)));
 167              		.loc 1 200 7 view .LVU51
 200:C:/Users/lenovo/STM32Cube/Repository/STM32Cube_FW_F1_V1.8.0/Drivers/STM32F1xx_HAL_Driver/Src\stm32f1xx_hal_exti.c ****       regval &= ~(AFIO_EXTICR1_EXTI0 << (AFIO_EXTICR1_EXTI1_Pos * (linepos & 0x03u)));
 168              		.loc 1 200 37 is_stmt 0 view .LVU52
 169 0086 9208     		lsrs	r2, r2, #2
 170              	.LVL7:
 200:C:/Users/lenovo/STM32Cube/Repository/STM32Cube_FW_F1_V1.8.0/Drivers/STM32F1xx_HAL_Driver/Src\stm32f1xx_hal_exti.c ****       regval &= ~(AFIO_EXTICR1_EXTI0 << (AFIO_EXTICR1_EXTI1_Pos * (linepos & 0x03u)));
 171              		.loc 1 200 14 view .LVU53
 172 0088 124E     		ldr	r6, .L18+4
 173 008a 0232     		adds	r2, r2, #2
 174 008c 56F82240 		ldr	r4, [r6, r2, lsl #2]
 175              	.LVL8:
 201:C:/Users/lenovo/STM32Cube/Repository/STM32Cube_FW_F1_V1.8.0/Drivers/STM32F1xx_HAL_Driver/Src\stm32f1xx_hal_exti.c ****       regval |= (pExtiConfig->GPIOSel << (AFIO_EXTICR1_EXTI1_Pos * (linepos & 0x03u)));
 176              		.loc 1 201 7 is_stmt 1 view .LVU54
 201:C:/Users/lenovo/STM32Cube/Repository/STM32Cube_FW_F1_V1.8.0/Drivers/STM32F1xx_HAL_Driver/Src\stm32f1xx_hal_exti.c ****       regval |= (pExtiConfig->GPIOSel << (AFIO_EXTICR1_EXTI1_Pos * (linepos & 0x03u)));
 177              		.loc 1 201 76 is_stmt 0 view .LVU55
 178 0090 03F00303 		and	r3, r3, #3
 179              	.LVL9:
 201:C:/Users/lenovo/STM32Cube/Repository/STM32Cube_FW_F1_V1.8.0/Drivers/STM32F1xx_HAL_Driver/Src\stm32f1xx_hal_exti.c ****       regval |= (pExtiConfig->GPIOSel << (AFIO_EXTICR1_EXTI1_Pos * (linepos & 0x03u)));
 180              		.loc 1 201 65 view .LVU56
 181 0094 9B00     		lsls	r3, r3, #2
 201:C:/Users/lenovo/STM32Cube/Repository/STM32Cube_FW_F1_V1.8.0/Drivers/STM32F1xx_HAL_Driver/Src\stm32f1xx_hal_exti.c ****       regval |= (pExtiConfig->GPIOSel << (AFIO_EXTICR1_EXTI1_Pos * (linepos & 0x03u)));
 182              		.loc 1 201 38 view .LVU57
 183 0096 0F25     		movs	r5, #15
 184 0098 9D40     		lsls	r5, r5, r3
 201:C:/Users/lenovo/STM32Cube/Repository/STM32Cube_FW_F1_V1.8.0/Drivers/STM32F1xx_HAL_Driver/Src\stm32f1xx_hal_exti.c ****       regval |= (pExtiConfig->GPIOSel << (AFIO_EXTICR1_EXTI1_Pos * (linepos & 0x03u)));
 185              		.loc 1 201 14 view .LVU58
 186 009a 24EA0504 		bic	r4, r4, r5
 187              	.LVL10:
 202:C:/Users/lenovo/STM32Cube/Repository/STM32Cube_FW_F1_V1.8.0/Drivers/STM32F1xx_HAL_Driver/Src\stm32f1xx_hal_exti.c ****       AFIO->EXTICR[linepos >> 2u] = regval;
 188              		.loc 1 202 7 is_stmt 1 view .LVU59
 202:C:/Users/lenovo/STM32Cube/Repository/STM32Cube_FW_F1_V1.8.0/Drivers/STM32F1xx_HAL_Driver/Src\stm32f1xx_hal_exti.c ****       AFIO->EXTICR[linepos >> 2u] = regval;
 189              		.loc 1 202 39 is_stmt 0 view .LVU60
 190 009e CD68     		ldr	r5, [r1, #12]
 191 00a0 05FA03F3 		lsl	r3, r5, r3
 202:C:/Users/lenovo/STM32Cube/Repository/STM32Cube_FW_F1_V1.8.0/Drivers/STM32F1xx_HAL_Driver/Src\stm32f1xx_hal_exti.c ****       AFIO->EXTICR[linepos >> 2u] = regval;
 192              		.loc 1 202 14 view .LVU61
 193 00a4 2343     		orrs	r3, r3, r4
 194              	.LVL11:
 203:C:/Users/lenovo/STM32Cube/Repository/STM32Cube_FW_F1_V1.8.0/Drivers/STM32F1xx_HAL_Driver/Src\stm32f1xx_hal_exti.c ****     }
 195              		.loc 1 203 7 is_stmt 1 view .LVU62
 203:C:/Users/lenovo/STM32Cube/Repository/STM32Cube_FW_F1_V1.8.0/Drivers/STM32F1xx_HAL_Driver/Src\stm32f1xx_hal_exti.c ****     }
 196              		.loc 1 203 35 is_stmt 0 view .LVU63
 197 00a6 46F82230 		str	r3, [r6, r2, lsl #2]
 198 00aa CDE7     		b	.L3
 199              	.LVL12:
 200              	.L8:
 215:C:/Users/lenovo/STM32Cube/Repository/STM32Cube_FW_F1_V1.8.0/Drivers/STM32F1xx_HAL_Driver/Src\stm32f1xx_hal_exti.c ****   }
 201              		.loc 1 215 5 is_stmt 1 view .LVU64
 215:C:/Users/lenovo/STM32Cube/Repository/STM32Cube_FW_F1_V1.8.0/Drivers/STM32F1xx_HAL_Driver/Src\stm32f1xx_hal_exti.c ****   }
 202              		.loc 1 215 15 is_stmt 0 view .LVU65
 203 00ac 084A     		ldr	r2, .L18
 204 00ae 1368     		ldr	r3, [r2]
 205 00b0 23EA0003 		bic	r3, r3, r0
ARM GAS  C:\Users\lenovo\AppData\Local\Temp\ccvaGzQf.s 			page 9


 206 00b4 1360     		str	r3, [r2]
 207 00b6 CFE7     		b	.L9
 208              	.L10:
 226:C:/Users/lenovo/STM32Cube/Repository/STM32Cube_FW_F1_V1.8.0/Drivers/STM32F1xx_HAL_Driver/Src\stm32f1xx_hal_exti.c ****   }
 209              		.loc 1 226 5 is_stmt 1 view .LVU66
 226:C:/Users/lenovo/STM32Cube/Repository/STM32Cube_FW_F1_V1.8.0/Drivers/STM32F1xx_HAL_Driver/Src\stm32f1xx_hal_exti.c ****   }
 210              		.loc 1 226 15 is_stmt 0 view .LVU67
 211 00b8 054A     		ldr	r2, .L18
 212 00ba 5368     		ldr	r3, [r2, #4]
 213 00bc 23EA0000 		bic	r0, r3, r0
 214              	.LVL13:
 226:C:/Users/lenovo/STM32Cube/Repository/STM32Cube_FW_F1_V1.8.0/Drivers/STM32F1xx_HAL_Driver/Src\stm32f1xx_hal_exti.c ****   }
 215              		.loc 1 226 15 view .LVU68
 216 00c0 5060     		str	r0, [r2, #4]
 229:C:/Users/lenovo/STM32Cube/Repository/STM32Cube_FW_F1_V1.8.0/Drivers/STM32F1xx_HAL_Driver/Src\stm32f1xx_hal_exti.c **** }
 217              		.loc 1 229 10 view .LVU69
 218 00c2 0020     		movs	r0, #0
 219 00c4 D1E7     		b	.L2
 220              	.LVL14:
 221              	.L11:
 222              	.LCFI3:
 223              		.cfi_def_cfa_offset 0
 224              		.cfi_restore 4
 225              		.cfi_restore 5
 226              		.cfi_restore 6
 152:C:/Users/lenovo/STM32Cube/Repository/STM32Cube_FW_F1_V1.8.0/Drivers/STM32F1xx_HAL_Driver/Src\stm32f1xx_hal_exti.c ****   }
 227              		.loc 1 152 12 view .LVU70
 228 00c6 0120     		movs	r0, #1
 229              	.LVL15:
 152:C:/Users/lenovo/STM32Cube/Repository/STM32Cube_FW_F1_V1.8.0/Drivers/STM32F1xx_HAL_Driver/Src\stm32f1xx_hal_exti.c ****   }
 230              		.loc 1 152 12 view .LVU71
 231 00c8 7047     		bx	lr
 232              	.LVL16:
 233              	.L12:
 152:C:/Users/lenovo/STM32Cube/Repository/STM32Cube_FW_F1_V1.8.0/Drivers/STM32F1xx_HAL_Driver/Src\stm32f1xx_hal_exti.c ****   }
 234              		.loc 1 152 12 view .LVU72
 235 00ca 0120     		movs	r0, #1
 236              	.LVL17:
 237              		.loc 1 230 1 view .LVU73
 238 00cc 7047     		bx	lr
 239              	.L19:
 240 00ce 00BF     		.align	2
 241              	.L18:
 242 00d0 00040140 		.word	1073808384
 243 00d4 00000140 		.word	1073807360
 244              		.cfi_endproc
 245              	.LFE65:
 247              		.section	.text.HAL_EXTI_GetConfigLine,"ax",%progbits
 248              		.align	1
 249              		.global	HAL_EXTI_GetConfigLine
 250              		.syntax unified
 251              		.thumb
 252              		.thumb_func
 254              	HAL_EXTI_GetConfigLine:
 255              	.LVL18:
 256              	.LFB66:
 231:C:/Users/lenovo/STM32Cube/Repository/STM32Cube_FW_F1_V1.8.0/Drivers/STM32F1xx_HAL_Driver/Src\stm32f1xx_hal_exti.c **** 
ARM GAS  C:\Users\lenovo\AppData\Local\Temp\ccvaGzQf.s 			page 10


 232:C:/Users/lenovo/STM32Cube/Repository/STM32Cube_FW_F1_V1.8.0/Drivers/STM32F1xx_HAL_Driver/Src\stm32f1xx_hal_exti.c **** /**
 233:C:/Users/lenovo/STM32Cube/Repository/STM32Cube_FW_F1_V1.8.0/Drivers/STM32F1xx_HAL_Driver/Src\stm32f1xx_hal_exti.c ****   * @brief  Get configuration of a dedicated Exti line.
 234:C:/Users/lenovo/STM32Cube/Repository/STM32Cube_FW_F1_V1.8.0/Drivers/STM32F1xx_HAL_Driver/Src\stm32f1xx_hal_exti.c ****   * @param  hexti Exti handle.
 235:C:/Users/lenovo/STM32Cube/Repository/STM32Cube_FW_F1_V1.8.0/Drivers/STM32F1xx_HAL_Driver/Src\stm32f1xx_hal_exti.c ****   * @param  pExtiConfig Pointer on structure to store Exti configuration.
 236:C:/Users/lenovo/STM32Cube/Repository/STM32Cube_FW_F1_V1.8.0/Drivers/STM32F1xx_HAL_Driver/Src\stm32f1xx_hal_exti.c ****   * @retval HAL Status.
 237:C:/Users/lenovo/STM32Cube/Repository/STM32Cube_FW_F1_V1.8.0/Drivers/STM32F1xx_HAL_Driver/Src\stm32f1xx_hal_exti.c ****   */
 238:C:/Users/lenovo/STM32Cube/Repository/STM32Cube_FW_F1_V1.8.0/Drivers/STM32F1xx_HAL_Driver/Src\stm32f1xx_hal_exti.c **** HAL_StatusTypeDef HAL_EXTI_GetConfigLine(EXTI_HandleTypeDef *hexti, EXTI_ConfigTypeDef *pExtiConfig
 239:C:/Users/lenovo/STM32Cube/Repository/STM32Cube_FW_F1_V1.8.0/Drivers/STM32F1xx_HAL_Driver/Src\stm32f1xx_hal_exti.c **** {
 257              		.loc 1 239 1 is_stmt 1 view -0
 258              		.cfi_startproc
 259              		@ args = 0, pretend = 0, frame = 0
 260              		@ frame_needed = 0, uses_anonymous_args = 0
 261              		@ link register save eliminated.
 240:C:/Users/lenovo/STM32Cube/Repository/STM32Cube_FW_F1_V1.8.0/Drivers/STM32F1xx_HAL_Driver/Src\stm32f1xx_hal_exti.c ****   uint32_t regval;
 262              		.loc 1 240 3 view .LVU75
 241:C:/Users/lenovo/STM32Cube/Repository/STM32Cube_FW_F1_V1.8.0/Drivers/STM32F1xx_HAL_Driver/Src\stm32f1xx_hal_exti.c ****   uint32_t linepos;
 263              		.loc 1 241 3 view .LVU76
 242:C:/Users/lenovo/STM32Cube/Repository/STM32Cube_FW_F1_V1.8.0/Drivers/STM32F1xx_HAL_Driver/Src\stm32f1xx_hal_exti.c ****   uint32_t maskline;
 264              		.loc 1 242 3 view .LVU77
 243:C:/Users/lenovo/STM32Cube/Repository/STM32Cube_FW_F1_V1.8.0/Drivers/STM32F1xx_HAL_Driver/Src\stm32f1xx_hal_exti.c **** 
 244:C:/Users/lenovo/STM32Cube/Repository/STM32Cube_FW_F1_V1.8.0/Drivers/STM32F1xx_HAL_Driver/Src\stm32f1xx_hal_exti.c ****   /* Check null pointer */
 245:C:/Users/lenovo/STM32Cube/Repository/STM32Cube_FW_F1_V1.8.0/Drivers/STM32F1xx_HAL_Driver/Src\stm32f1xx_hal_exti.c ****   if ((hexti == NULL) || (pExtiConfig == NULL))
 265              		.loc 1 245 3 view .LVU78
 266              		.loc 1 245 6 is_stmt 0 view .LVU79
 267 0000 0028     		cmp	r0, #0
 268 0002 4AD0     		beq	.L30
 269              		.loc 1 245 23 discriminator 1 view .LVU80
 270 0004 0029     		cmp	r1, #0
 271 0006 4AD0     		beq	.L31
 246:C:/Users/lenovo/STM32Cube/Repository/STM32Cube_FW_F1_V1.8.0/Drivers/STM32F1xx_HAL_Driver/Src\stm32f1xx_hal_exti.c ****   {
 247:C:/Users/lenovo/STM32Cube/Repository/STM32Cube_FW_F1_V1.8.0/Drivers/STM32F1xx_HAL_Driver/Src\stm32f1xx_hal_exti.c ****     return HAL_ERROR;
 248:C:/Users/lenovo/STM32Cube/Repository/STM32Cube_FW_F1_V1.8.0/Drivers/STM32F1xx_HAL_Driver/Src\stm32f1xx_hal_exti.c ****   }
 249:C:/Users/lenovo/STM32Cube/Repository/STM32Cube_FW_F1_V1.8.0/Drivers/STM32F1xx_HAL_Driver/Src\stm32f1xx_hal_exti.c **** 
 250:C:/Users/lenovo/STM32Cube/Repository/STM32Cube_FW_F1_V1.8.0/Drivers/STM32F1xx_HAL_Driver/Src\stm32f1xx_hal_exti.c ****   /* Check the parameter */
 251:C:/Users/lenovo/STM32Cube/Repository/STM32Cube_FW_F1_V1.8.0/Drivers/STM32F1xx_HAL_Driver/Src\stm32f1xx_hal_exti.c ****   assert_param(IS_EXTI_LINE(hexti->Line));
 272              		.loc 1 251 3 is_stmt 1 view .LVU81
 252:C:/Users/lenovo/STM32Cube/Repository/STM32Cube_FW_F1_V1.8.0/Drivers/STM32F1xx_HAL_Driver/Src\stm32f1xx_hal_exti.c **** 
 253:C:/Users/lenovo/STM32Cube/Repository/STM32Cube_FW_F1_V1.8.0/Drivers/STM32F1xx_HAL_Driver/Src\stm32f1xx_hal_exti.c ****   /* Store handle line number to configuration structure */
 254:C:/Users/lenovo/STM32Cube/Repository/STM32Cube_FW_F1_V1.8.0/Drivers/STM32F1xx_HAL_Driver/Src\stm32f1xx_hal_exti.c ****   pExtiConfig->Line = hexti->Line;
 273              		.loc 1 254 3 view .LVU82
 274              		.loc 1 254 28 is_stmt 0 view .LVU83
 275 0008 0068     		ldr	r0, [r0]
 276              	.LVL19:
 277              		.loc 1 254 21 view .LVU84
 278 000a 0860     		str	r0, [r1]
 255:C:/Users/lenovo/STM32Cube/Repository/STM32Cube_FW_F1_V1.8.0/Drivers/STM32F1xx_HAL_Driver/Src\stm32f1xx_hal_exti.c **** 
 256:C:/Users/lenovo/STM32Cube/Repository/STM32Cube_FW_F1_V1.8.0/Drivers/STM32F1xx_HAL_Driver/Src\stm32f1xx_hal_exti.c ****   /* Compute line mask */
 257:C:/Users/lenovo/STM32Cube/Repository/STM32Cube_FW_F1_V1.8.0/Drivers/STM32F1xx_HAL_Driver/Src\stm32f1xx_hal_exti.c ****   linepos = (pExtiConfig->Line & EXTI_PIN_MASK);
 279              		.loc 1 257 3 is_stmt 1 view .LVU85
 280              		.loc 1 257 11 is_stmt 0 view .LVU86
 281 000c 00F01F0C 		and	ip, r0, #31
 282              	.LVL20:
 258:C:/Users/lenovo/STM32Cube/Repository/STM32Cube_FW_F1_V1.8.0/Drivers/STM32F1xx_HAL_Driver/Src\stm32f1xx_hal_exti.c ****   maskline = (1uL << linepos);
 283              		.loc 1 258 3 is_stmt 1 view .LVU87
 284              		.loc 1 258 12 is_stmt 0 view .LVU88
 285 0010 0123     		movs	r3, #1
 286 0012 03FA0CF3 		lsl	r3, r3, ip
ARM GAS  C:\Users\lenovo\AppData\Local\Temp\ccvaGzQf.s 			page 11


 287              	.LVL21:
 259:C:/Users/lenovo/STM32Cube/Repository/STM32Cube_FW_F1_V1.8.0/Drivers/STM32F1xx_HAL_Driver/Src\stm32f1xx_hal_exti.c **** 
 260:C:/Users/lenovo/STM32Cube/Repository/STM32Cube_FW_F1_V1.8.0/Drivers/STM32F1xx_HAL_Driver/Src\stm32f1xx_hal_exti.c ****   /* 1] Get core mode : interrupt */
 261:C:/Users/lenovo/STM32Cube/Repository/STM32Cube_FW_F1_V1.8.0/Drivers/STM32F1xx_HAL_Driver/Src\stm32f1xx_hal_exti.c **** 
 262:C:/Users/lenovo/STM32Cube/Repository/STM32Cube_FW_F1_V1.8.0/Drivers/STM32F1xx_HAL_Driver/Src\stm32f1xx_hal_exti.c ****   /* Check if selected line is enable */
 263:C:/Users/lenovo/STM32Cube/Repository/STM32Cube_FW_F1_V1.8.0/Drivers/STM32F1xx_HAL_Driver/Src\stm32f1xx_hal_exti.c ****   if ((EXTI->IMR & maskline) != 0x00u)
 288              		.loc 1 263 3 is_stmt 1 view .LVU89
 289              		.loc 1 263 12 is_stmt 0 view .LVU90
 290 0016 234A     		ldr	r2, .L33
 291 0018 1268     		ldr	r2, [r2]
 292              		.loc 1 263 6 view .LVU91
 293 001a 1A42     		tst	r2, r3
 294 001c 22D0     		beq	.L22
 264:C:/Users/lenovo/STM32Cube/Repository/STM32Cube_FW_F1_V1.8.0/Drivers/STM32F1xx_HAL_Driver/Src\stm32f1xx_hal_exti.c ****   {
 265:C:/Users/lenovo/STM32Cube/Repository/STM32Cube_FW_F1_V1.8.0/Drivers/STM32F1xx_HAL_Driver/Src\stm32f1xx_hal_exti.c ****     pExtiConfig->Mode = EXTI_MODE_INTERRUPT;
 295              		.loc 1 265 5 is_stmt 1 view .LVU92
 296              		.loc 1 265 23 is_stmt 0 view .LVU93
 297 001e 0122     		movs	r2, #1
 298 0020 4A60     		str	r2, [r1, #4]
 299              	.L23:
 266:C:/Users/lenovo/STM32Cube/Repository/STM32Cube_FW_F1_V1.8.0/Drivers/STM32F1xx_HAL_Driver/Src\stm32f1xx_hal_exti.c ****   }
 267:C:/Users/lenovo/STM32Cube/Repository/STM32Cube_FW_F1_V1.8.0/Drivers/STM32F1xx_HAL_Driver/Src\stm32f1xx_hal_exti.c ****   else
 268:C:/Users/lenovo/STM32Cube/Repository/STM32Cube_FW_F1_V1.8.0/Drivers/STM32F1xx_HAL_Driver/Src\stm32f1xx_hal_exti.c ****   {
 269:C:/Users/lenovo/STM32Cube/Repository/STM32Cube_FW_F1_V1.8.0/Drivers/STM32F1xx_HAL_Driver/Src\stm32f1xx_hal_exti.c ****     pExtiConfig->Mode = EXTI_MODE_NONE;
 270:C:/Users/lenovo/STM32Cube/Repository/STM32Cube_FW_F1_V1.8.0/Drivers/STM32F1xx_HAL_Driver/Src\stm32f1xx_hal_exti.c ****   }
 271:C:/Users/lenovo/STM32Cube/Repository/STM32Cube_FW_F1_V1.8.0/Drivers/STM32F1xx_HAL_Driver/Src\stm32f1xx_hal_exti.c **** 
 272:C:/Users/lenovo/STM32Cube/Repository/STM32Cube_FW_F1_V1.8.0/Drivers/STM32F1xx_HAL_Driver/Src\stm32f1xx_hal_exti.c ****   /* Get event mode */
 273:C:/Users/lenovo/STM32Cube/Repository/STM32Cube_FW_F1_V1.8.0/Drivers/STM32F1xx_HAL_Driver/Src\stm32f1xx_hal_exti.c ****   /* Check if selected line is enable */
 274:C:/Users/lenovo/STM32Cube/Repository/STM32Cube_FW_F1_V1.8.0/Drivers/STM32F1xx_HAL_Driver/Src\stm32f1xx_hal_exti.c ****   if ((EXTI->EMR & maskline) != 0x00u)
 300              		.loc 1 274 3 is_stmt 1 view .LVU94
 301              		.loc 1 274 12 is_stmt 0 view .LVU95
 302 0022 204A     		ldr	r2, .L33
 303 0024 5268     		ldr	r2, [r2, #4]
 304              		.loc 1 274 6 view .LVU96
 305 0026 1A42     		tst	r2, r3
 306 0028 03D0     		beq	.L24
 275:C:/Users/lenovo/STM32Cube/Repository/STM32Cube_FW_F1_V1.8.0/Drivers/STM32F1xx_HAL_Driver/Src\stm32f1xx_hal_exti.c ****   {
 276:C:/Users/lenovo/STM32Cube/Repository/STM32Cube_FW_F1_V1.8.0/Drivers/STM32F1xx_HAL_Driver/Src\stm32f1xx_hal_exti.c ****     pExtiConfig->Mode |= EXTI_MODE_EVENT;
 307              		.loc 1 276 5 is_stmt 1 view .LVU97
 308              		.loc 1 276 23 is_stmt 0 view .LVU98
 309 002a 4A68     		ldr	r2, [r1, #4]
 310 002c 42F00202 		orr	r2, r2, #2
 311 0030 4A60     		str	r2, [r1, #4]
 312              	.L24:
 277:C:/Users/lenovo/STM32Cube/Repository/STM32Cube_FW_F1_V1.8.0/Drivers/STM32F1xx_HAL_Driver/Src\stm32f1xx_hal_exti.c ****   }
 278:C:/Users/lenovo/STM32Cube/Repository/STM32Cube_FW_F1_V1.8.0/Drivers/STM32F1xx_HAL_Driver/Src\stm32f1xx_hal_exti.c **** 
 279:C:/Users/lenovo/STM32Cube/Repository/STM32Cube_FW_F1_V1.8.0/Drivers/STM32F1xx_HAL_Driver/Src\stm32f1xx_hal_exti.c ****   /* 2] Get trigger for configurable lines : rising */
 280:C:/Users/lenovo/STM32Cube/Repository/STM32Cube_FW_F1_V1.8.0/Drivers/STM32F1xx_HAL_Driver/Src\stm32f1xx_hal_exti.c ****   if ((pExtiConfig->Line & EXTI_CONFIG) != 0x00u)
 313              		.loc 1 280 3 is_stmt 1 view .LVU99
 314              		.loc 1 280 6 is_stmt 0 view .LVU100
 315 0032 10F0007F 		tst	r0, #33554432
 316 0036 2CD0     		beq	.L25
 281:C:/Users/lenovo/STM32Cube/Repository/STM32Cube_FW_F1_V1.8.0/Drivers/STM32F1xx_HAL_Driver/Src\stm32f1xx_hal_exti.c ****   {
 282:C:/Users/lenovo/STM32Cube/Repository/STM32Cube_FW_F1_V1.8.0/Drivers/STM32F1xx_HAL_Driver/Src\stm32f1xx_hal_exti.c ****     /* Check if configuration of selected line is enable */
 283:C:/Users/lenovo/STM32Cube/Repository/STM32Cube_FW_F1_V1.8.0/Drivers/STM32F1xx_HAL_Driver/Src\stm32f1xx_hal_exti.c ****     if ((EXTI->RTSR & maskline) != 0x00u)
 317              		.loc 1 283 5 is_stmt 1 view .LVU101
 318              		.loc 1 283 14 is_stmt 0 view .LVU102
ARM GAS  C:\Users\lenovo\AppData\Local\Temp\ccvaGzQf.s 			page 12


 319 0038 1A4A     		ldr	r2, .L33
 320 003a 9268     		ldr	r2, [r2, #8]
 321              		.loc 1 283 8 view .LVU103
 322 003c 1A42     		tst	r2, r3
 323 003e 14D0     		beq	.L26
 284:C:/Users/lenovo/STM32Cube/Repository/STM32Cube_FW_F1_V1.8.0/Drivers/STM32F1xx_HAL_Driver/Src\stm32f1xx_hal_exti.c ****     {
 285:C:/Users/lenovo/STM32Cube/Repository/STM32Cube_FW_F1_V1.8.0/Drivers/STM32F1xx_HAL_Driver/Src\stm32f1xx_hal_exti.c ****       pExtiConfig->Trigger = EXTI_TRIGGER_RISING;
 324              		.loc 1 285 7 is_stmt 1 view .LVU104
 325              		.loc 1 285 28 is_stmt 0 view .LVU105
 326 0040 0122     		movs	r2, #1
 327 0042 8A60     		str	r2, [r1, #8]
 328              	.L27:
 286:C:/Users/lenovo/STM32Cube/Repository/STM32Cube_FW_F1_V1.8.0/Drivers/STM32F1xx_HAL_Driver/Src\stm32f1xx_hal_exti.c ****     }
 287:C:/Users/lenovo/STM32Cube/Repository/STM32Cube_FW_F1_V1.8.0/Drivers/STM32F1xx_HAL_Driver/Src\stm32f1xx_hal_exti.c ****     else
 288:C:/Users/lenovo/STM32Cube/Repository/STM32Cube_FW_F1_V1.8.0/Drivers/STM32F1xx_HAL_Driver/Src\stm32f1xx_hal_exti.c ****     {
 289:C:/Users/lenovo/STM32Cube/Repository/STM32Cube_FW_F1_V1.8.0/Drivers/STM32F1xx_HAL_Driver/Src\stm32f1xx_hal_exti.c ****       pExtiConfig->Trigger = EXTI_TRIGGER_NONE;
 290:C:/Users/lenovo/STM32Cube/Repository/STM32Cube_FW_F1_V1.8.0/Drivers/STM32F1xx_HAL_Driver/Src\stm32f1xx_hal_exti.c ****     }
 291:C:/Users/lenovo/STM32Cube/Repository/STM32Cube_FW_F1_V1.8.0/Drivers/STM32F1xx_HAL_Driver/Src\stm32f1xx_hal_exti.c **** 
 292:C:/Users/lenovo/STM32Cube/Repository/STM32Cube_FW_F1_V1.8.0/Drivers/STM32F1xx_HAL_Driver/Src\stm32f1xx_hal_exti.c ****     /* Get falling configuration */
 293:C:/Users/lenovo/STM32Cube/Repository/STM32Cube_FW_F1_V1.8.0/Drivers/STM32F1xx_HAL_Driver/Src\stm32f1xx_hal_exti.c ****     /* Check if configuration of selected line is enable */
 294:C:/Users/lenovo/STM32Cube/Repository/STM32Cube_FW_F1_V1.8.0/Drivers/STM32F1xx_HAL_Driver/Src\stm32f1xx_hal_exti.c ****     if ((EXTI->FTSR & maskline) != 0x00u)
 329              		.loc 1 294 5 is_stmt 1 view .LVU106
 330              		.loc 1 294 14 is_stmt 0 view .LVU107
 331 0044 174A     		ldr	r2, .L33
 332 0046 D268     		ldr	r2, [r2, #12]
 333              		.loc 1 294 8 view .LVU108
 334 0048 1A42     		tst	r2, r3
 335 004a 03D0     		beq	.L28
 295:C:/Users/lenovo/STM32Cube/Repository/STM32Cube_FW_F1_V1.8.0/Drivers/STM32F1xx_HAL_Driver/Src\stm32f1xx_hal_exti.c ****     {
 296:C:/Users/lenovo/STM32Cube/Repository/STM32Cube_FW_F1_V1.8.0/Drivers/STM32F1xx_HAL_Driver/Src\stm32f1xx_hal_exti.c ****       pExtiConfig->Trigger |= EXTI_TRIGGER_FALLING;
 336              		.loc 1 296 7 is_stmt 1 view .LVU109
 337              		.loc 1 296 28 is_stmt 0 view .LVU110
 338 004c 8B68     		ldr	r3, [r1, #8]
 339              	.LVL22:
 340              		.loc 1 296 28 view .LVU111
 341 004e 43F00203 		orr	r3, r3, #2
 342 0052 8B60     		str	r3, [r1, #8]
 343              	.L28:
 297:C:/Users/lenovo/STM32Cube/Repository/STM32Cube_FW_F1_V1.8.0/Drivers/STM32F1xx_HAL_Driver/Src\stm32f1xx_hal_exti.c ****     }
 298:C:/Users/lenovo/STM32Cube/Repository/STM32Cube_FW_F1_V1.8.0/Drivers/STM32F1xx_HAL_Driver/Src\stm32f1xx_hal_exti.c **** 
 299:C:/Users/lenovo/STM32Cube/Repository/STM32Cube_FW_F1_V1.8.0/Drivers/STM32F1xx_HAL_Driver/Src\stm32f1xx_hal_exti.c ****     /* Get Gpio port selection for gpio lines */
 300:C:/Users/lenovo/STM32Cube/Repository/STM32Cube_FW_F1_V1.8.0/Drivers/STM32F1xx_HAL_Driver/Src\stm32f1xx_hal_exti.c ****     if ((pExtiConfig->Line & EXTI_GPIO) == EXTI_GPIO)
 344              		.loc 1 300 5 is_stmt 1 view .LVU112
 345              		.loc 1 300 28 is_stmt 0 view .LVU113
 346 0054 00F0C063 		and	r3, r0, #100663296
 347              		.loc 1 300 8 view .LVU114
 348 0058 B3F1C06F 		cmp	r3, #100663296
 349 005c 08D0     		beq	.L32
 301:C:/Users/lenovo/STM32Cube/Repository/STM32Cube_FW_F1_V1.8.0/Drivers/STM32F1xx_HAL_Driver/Src\stm32f1xx_hal_exti.c ****     {
 302:C:/Users/lenovo/STM32Cube/Repository/STM32Cube_FW_F1_V1.8.0/Drivers/STM32F1xx_HAL_Driver/Src\stm32f1xx_hal_exti.c ****       assert_param(IS_EXTI_GPIO_PIN(linepos));
 303:C:/Users/lenovo/STM32Cube/Repository/STM32Cube_FW_F1_V1.8.0/Drivers/STM32F1xx_HAL_Driver/Src\stm32f1xx_hal_exti.c **** 
 304:C:/Users/lenovo/STM32Cube/Repository/STM32Cube_FW_F1_V1.8.0/Drivers/STM32F1xx_HAL_Driver/Src\stm32f1xx_hal_exti.c ****       regval = AFIO->EXTICR[linepos >> 2u];
 305:C:/Users/lenovo/STM32Cube/Repository/STM32Cube_FW_F1_V1.8.0/Drivers/STM32F1xx_HAL_Driver/Src\stm32f1xx_hal_exti.c ****       pExtiConfig->GPIOSel = ((regval << (AFIO_EXTICR1_EXTI1_Pos * (3uL - (linepos & 0x03u)))) >> 2
 306:C:/Users/lenovo/STM32Cube/Repository/STM32Cube_FW_F1_V1.8.0/Drivers/STM32F1xx_HAL_Driver/Src\stm32f1xx_hal_exti.c ****     }
 307:C:/Users/lenovo/STM32Cube/Repository/STM32Cube_FW_F1_V1.8.0/Drivers/STM32F1xx_HAL_Driver/Src\stm32f1xx_hal_exti.c ****     else
 308:C:/Users/lenovo/STM32Cube/Repository/STM32Cube_FW_F1_V1.8.0/Drivers/STM32F1xx_HAL_Driver/Src\stm32f1xx_hal_exti.c ****     {
 309:C:/Users/lenovo/STM32Cube/Repository/STM32Cube_FW_F1_V1.8.0/Drivers/STM32F1xx_HAL_Driver/Src\stm32f1xx_hal_exti.c ****       pExtiConfig->GPIOSel = 0x00u;
ARM GAS  C:\Users\lenovo\AppData\Local\Temp\ccvaGzQf.s 			page 13


 350              		.loc 1 309 7 is_stmt 1 view .LVU115
 351              		.loc 1 309 28 is_stmt 0 view .LVU116
 352 005e 0020     		movs	r0, #0
 353 0060 C860     		str	r0, [r1, #12]
 354 0062 7047     		bx	lr
 355              	.LVL23:
 356              	.L22:
 269:C:/Users/lenovo/STM32Cube/Repository/STM32Cube_FW_F1_V1.8.0/Drivers/STM32F1xx_HAL_Driver/Src\stm32f1xx_hal_exti.c ****   }
 357              		.loc 1 269 5 is_stmt 1 view .LVU117
 269:C:/Users/lenovo/STM32Cube/Repository/STM32Cube_FW_F1_V1.8.0/Drivers/STM32F1xx_HAL_Driver/Src\stm32f1xx_hal_exti.c ****   }
 358              		.loc 1 269 23 is_stmt 0 view .LVU118
 359 0064 0022     		movs	r2, #0
 360 0066 4A60     		str	r2, [r1, #4]
 361 0068 DBE7     		b	.L23
 362              	.L26:
 289:C:/Users/lenovo/STM32Cube/Repository/STM32Cube_FW_F1_V1.8.0/Drivers/STM32F1xx_HAL_Driver/Src\stm32f1xx_hal_exti.c ****     }
 363              		.loc 1 289 7 is_stmt 1 view .LVU119
 289:C:/Users/lenovo/STM32Cube/Repository/STM32Cube_FW_F1_V1.8.0/Drivers/STM32F1xx_HAL_Driver/Src\stm32f1xx_hal_exti.c ****     }
 364              		.loc 1 289 28 is_stmt 0 view .LVU120
 365 006a 0022     		movs	r2, #0
 366 006c 8A60     		str	r2, [r1, #8]
 367 006e E9E7     		b	.L27
 368              	.LVL24:
 369              	.L32:
 302:C:/Users/lenovo/STM32Cube/Repository/STM32Cube_FW_F1_V1.8.0/Drivers/STM32F1xx_HAL_Driver/Src\stm32f1xx_hal_exti.c **** 
 370              		.loc 1 302 7 is_stmt 1 view .LVU121
 304:C:/Users/lenovo/STM32Cube/Repository/STM32Cube_FW_F1_V1.8.0/Drivers/STM32F1xx_HAL_Driver/Src\stm32f1xx_hal_exti.c ****       pExtiConfig->GPIOSel = ((regval << (AFIO_EXTICR1_EXTI1_Pos * (3uL - (linepos & 0x03u)))) >> 2
 371              		.loc 1 304 7 view .LVU122
 304:C:/Users/lenovo/STM32Cube/Repository/STM32Cube_FW_F1_V1.8.0/Drivers/STM32F1xx_HAL_Driver/Src\stm32f1xx_hal_exti.c ****       pExtiConfig->GPIOSel = ((regval << (AFIO_EXTICR1_EXTI1_Pos * (3uL - (linepos & 0x03u)))) >> 2
 372              		.loc 1 304 37 is_stmt 0 view .LVU123
 373 0070 4FEA9C03 		lsr	r3, ip, #2
 304:C:/Users/lenovo/STM32Cube/Repository/STM32Cube_FW_F1_V1.8.0/Drivers/STM32F1xx_HAL_Driver/Src\stm32f1xx_hal_exti.c ****       pExtiConfig->GPIOSel = ((regval << (AFIO_EXTICR1_EXTI1_Pos * (3uL - (linepos & 0x03u)))) >> 2
 374              		.loc 1 304 14 view .LVU124
 375 0074 0233     		adds	r3, r3, #2
 376 0076 0C4A     		ldr	r2, .L33+4
 377 0078 52F82320 		ldr	r2, [r2, r3, lsl #2]
 378              	.LVL25:
 305:C:/Users/lenovo/STM32Cube/Repository/STM32Cube_FW_F1_V1.8.0/Drivers/STM32F1xx_HAL_Driver/Src\stm32f1xx_hal_exti.c ****     }
 379              		.loc 1 305 7 is_stmt 1 view .LVU125
 305:C:/Users/lenovo/STM32Cube/Repository/STM32Cube_FW_F1_V1.8.0/Drivers/STM32F1xx_HAL_Driver/Src\stm32f1xx_hal_exti.c ****     }
 380              		.loc 1 305 73 is_stmt 0 view .LVU126
 381 007c 6FEA0C03 		mvn	r3, ip
 382 0080 03F00303 		and	r3, r3, #3
 305:C:/Users/lenovo/STM32Cube/Repository/STM32Cube_FW_F1_V1.8.0/Drivers/STM32F1xx_HAL_Driver/Src\stm32f1xx_hal_exti.c ****     }
 383              		.loc 1 305 66 view .LVU127
 384 0084 9B00     		lsls	r3, r3, #2
 305:C:/Users/lenovo/STM32Cube/Repository/STM32Cube_FW_F1_V1.8.0/Drivers/STM32F1xx_HAL_Driver/Src\stm32f1xx_hal_exti.c ****     }
 385              		.loc 1 305 39 view .LVU128
 386 0086 02FA03F3 		lsl	r3, r2, r3
 305:C:/Users/lenovo/STM32Cube/Repository/STM32Cube_FW_F1_V1.8.0/Drivers/STM32F1xx_HAL_Driver/Src\stm32f1xx_hal_exti.c ****     }
 387              		.loc 1 305 96 view .LVU129
 388 008a 1B0E     		lsrs	r3, r3, #24
 305:C:/Users/lenovo/STM32Cube/Repository/STM32Cube_FW_F1_V1.8.0/Drivers/STM32F1xx_HAL_Driver/Src\stm32f1xx_hal_exti.c ****     }
 389              		.loc 1 305 28 view .LVU130
 390 008c CB60     		str	r3, [r1, #12]
 310:C:/Users/lenovo/STM32Cube/Repository/STM32Cube_FW_F1_V1.8.0/Drivers/STM32F1xx_HAL_Driver/Src\stm32f1xx_hal_exti.c ****     }
 311:C:/Users/lenovo/STM32Cube/Repository/STM32Cube_FW_F1_V1.8.0/Drivers/STM32F1xx_HAL_Driver/Src\stm32f1xx_hal_exti.c ****   }
ARM GAS  C:\Users\lenovo\AppData\Local\Temp\ccvaGzQf.s 			page 14


 312:C:/Users/lenovo/STM32Cube/Repository/STM32Cube_FW_F1_V1.8.0/Drivers/STM32F1xx_HAL_Driver/Src\stm32f1xx_hal_exti.c ****   else
 313:C:/Users/lenovo/STM32Cube/Repository/STM32Cube_FW_F1_V1.8.0/Drivers/STM32F1xx_HAL_Driver/Src\stm32f1xx_hal_exti.c ****   {
 314:C:/Users/lenovo/STM32Cube/Repository/STM32Cube_FW_F1_V1.8.0/Drivers/STM32F1xx_HAL_Driver/Src\stm32f1xx_hal_exti.c ****     /* No Trigger selected */
 315:C:/Users/lenovo/STM32Cube/Repository/STM32Cube_FW_F1_V1.8.0/Drivers/STM32F1xx_HAL_Driver/Src\stm32f1xx_hal_exti.c ****     pExtiConfig->Trigger = EXTI_TRIGGER_NONE;
 316:C:/Users/lenovo/STM32Cube/Repository/STM32Cube_FW_F1_V1.8.0/Drivers/STM32F1xx_HAL_Driver/Src\stm32f1xx_hal_exti.c ****     pExtiConfig->GPIOSel = 0x00u;
 317:C:/Users/lenovo/STM32Cube/Repository/STM32Cube_FW_F1_V1.8.0/Drivers/STM32F1xx_HAL_Driver/Src\stm32f1xx_hal_exti.c ****   }
 318:C:/Users/lenovo/STM32Cube/Repository/STM32Cube_FW_F1_V1.8.0/Drivers/STM32F1xx_HAL_Driver/Src\stm32f1xx_hal_exti.c **** 
 319:C:/Users/lenovo/STM32Cube/Repository/STM32Cube_FW_F1_V1.8.0/Drivers/STM32F1xx_HAL_Driver/Src\stm32f1xx_hal_exti.c ****   return HAL_OK;
 391              		.loc 1 319 10 view .LVU131
 392 008e 0020     		movs	r0, #0
 393 0090 7047     		bx	lr
 394              	.LVL26:
 395              	.L25:
 315:C:/Users/lenovo/STM32Cube/Repository/STM32Cube_FW_F1_V1.8.0/Drivers/STM32F1xx_HAL_Driver/Src\stm32f1xx_hal_exti.c ****     pExtiConfig->GPIOSel = 0x00u;
 396              		.loc 1 315 5 is_stmt 1 view .LVU132
 315:C:/Users/lenovo/STM32Cube/Repository/STM32Cube_FW_F1_V1.8.0/Drivers/STM32F1xx_HAL_Driver/Src\stm32f1xx_hal_exti.c ****     pExtiConfig->GPIOSel = 0x00u;
 397              		.loc 1 315 26 is_stmt 0 view .LVU133
 398 0092 0020     		movs	r0, #0
 399 0094 8860     		str	r0, [r1, #8]
 316:C:/Users/lenovo/STM32Cube/Repository/STM32Cube_FW_F1_V1.8.0/Drivers/STM32F1xx_HAL_Driver/Src\stm32f1xx_hal_exti.c ****   }
 400              		.loc 1 316 5 is_stmt 1 view .LVU134
 316:C:/Users/lenovo/STM32Cube/Repository/STM32Cube_FW_F1_V1.8.0/Drivers/STM32F1xx_HAL_Driver/Src\stm32f1xx_hal_exti.c ****   }
 401              		.loc 1 316 26 is_stmt 0 view .LVU135
 402 0096 C860     		str	r0, [r1, #12]
 403 0098 7047     		bx	lr
 404              	.LVL27:
 405              	.L30:
 247:C:/Users/lenovo/STM32Cube/Repository/STM32Cube_FW_F1_V1.8.0/Drivers/STM32F1xx_HAL_Driver/Src\stm32f1xx_hal_exti.c ****   }
 406              		.loc 1 247 12 view .LVU136
 407 009a 0120     		movs	r0, #1
 408              	.LVL28:
 247:C:/Users/lenovo/STM32Cube/Repository/STM32Cube_FW_F1_V1.8.0/Drivers/STM32F1xx_HAL_Driver/Src\stm32f1xx_hal_exti.c ****   }
 409              		.loc 1 247 12 view .LVU137
 410 009c 7047     		bx	lr
 411              	.LVL29:
 412              	.L31:
 247:C:/Users/lenovo/STM32Cube/Repository/STM32Cube_FW_F1_V1.8.0/Drivers/STM32F1xx_HAL_Driver/Src\stm32f1xx_hal_exti.c ****   }
 413              		.loc 1 247 12 view .LVU138
 414 009e 0120     		movs	r0, #1
 415              	.LVL30:
 320:C:/Users/lenovo/STM32Cube/Repository/STM32Cube_FW_F1_V1.8.0/Drivers/STM32F1xx_HAL_Driver/Src\stm32f1xx_hal_exti.c **** }
 416              		.loc 1 320 1 view .LVU139
 417 00a0 7047     		bx	lr
 418              	.L34:
 419 00a2 00BF     		.align	2
 420              	.L33:
 421 00a4 00040140 		.word	1073808384
 422 00a8 00000140 		.word	1073807360
 423              		.cfi_endproc
 424              	.LFE66:
 426              		.section	.text.HAL_EXTI_ClearConfigLine,"ax",%progbits
 427              		.align	1
 428              		.global	HAL_EXTI_ClearConfigLine
 429              		.syntax unified
 430              		.thumb
 431              		.thumb_func
 433              	HAL_EXTI_ClearConfigLine:
ARM GAS  C:\Users\lenovo\AppData\Local\Temp\ccvaGzQf.s 			page 15


 434              	.LVL31:
 435              	.LFB67:
 321:C:/Users/lenovo/STM32Cube/Repository/STM32Cube_FW_F1_V1.8.0/Drivers/STM32F1xx_HAL_Driver/Src\stm32f1xx_hal_exti.c **** 
 322:C:/Users/lenovo/STM32Cube/Repository/STM32Cube_FW_F1_V1.8.0/Drivers/STM32F1xx_HAL_Driver/Src\stm32f1xx_hal_exti.c **** /**
 323:C:/Users/lenovo/STM32Cube/Repository/STM32Cube_FW_F1_V1.8.0/Drivers/STM32F1xx_HAL_Driver/Src\stm32f1xx_hal_exti.c ****   * @brief  Clear whole configuration of a dedicated Exti line.
 324:C:/Users/lenovo/STM32Cube/Repository/STM32Cube_FW_F1_V1.8.0/Drivers/STM32F1xx_HAL_Driver/Src\stm32f1xx_hal_exti.c ****   * @param  hexti Exti handle.
 325:C:/Users/lenovo/STM32Cube/Repository/STM32Cube_FW_F1_V1.8.0/Drivers/STM32F1xx_HAL_Driver/Src\stm32f1xx_hal_exti.c ****   * @retval HAL Status.
 326:C:/Users/lenovo/STM32Cube/Repository/STM32Cube_FW_F1_V1.8.0/Drivers/STM32F1xx_HAL_Driver/Src\stm32f1xx_hal_exti.c ****   */
 327:C:/Users/lenovo/STM32Cube/Repository/STM32Cube_FW_F1_V1.8.0/Drivers/STM32F1xx_HAL_Driver/Src\stm32f1xx_hal_exti.c **** HAL_StatusTypeDef HAL_EXTI_ClearConfigLine(EXTI_HandleTypeDef *hexti)
 328:C:/Users/lenovo/STM32Cube/Repository/STM32Cube_FW_F1_V1.8.0/Drivers/STM32F1xx_HAL_Driver/Src\stm32f1xx_hal_exti.c **** {
 436              		.loc 1 328 1 is_stmt 1 view -0
 437              		.cfi_startproc
 438              		@ args = 0, pretend = 0, frame = 0
 439              		@ frame_needed = 0, uses_anonymous_args = 0
 329:C:/Users/lenovo/STM32Cube/Repository/STM32Cube_FW_F1_V1.8.0/Drivers/STM32F1xx_HAL_Driver/Src\stm32f1xx_hal_exti.c ****   uint32_t regval;
 440              		.loc 1 329 3 view .LVU141
 330:C:/Users/lenovo/STM32Cube/Repository/STM32Cube_FW_F1_V1.8.0/Drivers/STM32F1xx_HAL_Driver/Src\stm32f1xx_hal_exti.c ****   uint32_t linepos;
 441              		.loc 1 330 3 view .LVU142
 331:C:/Users/lenovo/STM32Cube/Repository/STM32Cube_FW_F1_V1.8.0/Drivers/STM32F1xx_HAL_Driver/Src\stm32f1xx_hal_exti.c ****   uint32_t maskline;
 442              		.loc 1 331 3 view .LVU143
 332:C:/Users/lenovo/STM32Cube/Repository/STM32Cube_FW_F1_V1.8.0/Drivers/STM32F1xx_HAL_Driver/Src\stm32f1xx_hal_exti.c **** 
 333:C:/Users/lenovo/STM32Cube/Repository/STM32Cube_FW_F1_V1.8.0/Drivers/STM32F1xx_HAL_Driver/Src\stm32f1xx_hal_exti.c ****   /* Check null pointer */
 334:C:/Users/lenovo/STM32Cube/Repository/STM32Cube_FW_F1_V1.8.0/Drivers/STM32F1xx_HAL_Driver/Src\stm32f1xx_hal_exti.c ****   if (hexti == NULL)
 443              		.loc 1 334 3 view .LVU144
 444              		.loc 1 334 6 is_stmt 0 view .LVU145
 445 0000 0028     		cmp	r0, #0
 446 0002 38D0     		beq	.L37
 328:C:/Users/lenovo/STM32Cube/Repository/STM32Cube_FW_F1_V1.8.0/Drivers/STM32F1xx_HAL_Driver/Src\stm32f1xx_hal_exti.c ****   uint32_t regval;
 447              		.loc 1 328 1 view .LVU146
 448 0004 10B5     		push	{r4, lr}
 449              	.LCFI4:
 450              		.cfi_def_cfa_offset 8
 451              		.cfi_offset 4, -8
 452              		.cfi_offset 14, -4
 453 0006 8446     		mov	ip, r0
 335:C:/Users/lenovo/STM32Cube/Repository/STM32Cube_FW_F1_V1.8.0/Drivers/STM32F1xx_HAL_Driver/Src\stm32f1xx_hal_exti.c ****   {
 336:C:/Users/lenovo/STM32Cube/Repository/STM32Cube_FW_F1_V1.8.0/Drivers/STM32F1xx_HAL_Driver/Src\stm32f1xx_hal_exti.c ****     return HAL_ERROR;
 337:C:/Users/lenovo/STM32Cube/Repository/STM32Cube_FW_F1_V1.8.0/Drivers/STM32F1xx_HAL_Driver/Src\stm32f1xx_hal_exti.c ****   }
 338:C:/Users/lenovo/STM32Cube/Repository/STM32Cube_FW_F1_V1.8.0/Drivers/STM32F1xx_HAL_Driver/Src\stm32f1xx_hal_exti.c **** 
 339:C:/Users/lenovo/STM32Cube/Repository/STM32Cube_FW_F1_V1.8.0/Drivers/STM32F1xx_HAL_Driver/Src\stm32f1xx_hal_exti.c ****   /* Check the parameter */
 340:C:/Users/lenovo/STM32Cube/Repository/STM32Cube_FW_F1_V1.8.0/Drivers/STM32F1xx_HAL_Driver/Src\stm32f1xx_hal_exti.c ****   assert_param(IS_EXTI_LINE(hexti->Line));
 454              		.loc 1 340 3 is_stmt 1 view .LVU147
 341:C:/Users/lenovo/STM32Cube/Repository/STM32Cube_FW_F1_V1.8.0/Drivers/STM32F1xx_HAL_Driver/Src\stm32f1xx_hal_exti.c **** 
 342:C:/Users/lenovo/STM32Cube/Repository/STM32Cube_FW_F1_V1.8.0/Drivers/STM32F1xx_HAL_Driver/Src\stm32f1xx_hal_exti.c ****   /* compute line mask */
 343:C:/Users/lenovo/STM32Cube/Repository/STM32Cube_FW_F1_V1.8.0/Drivers/STM32F1xx_HAL_Driver/Src\stm32f1xx_hal_exti.c ****   linepos = (hexti->Line & EXTI_PIN_MASK);
 455              		.loc 1 343 3 view .LVU148
 456              		.loc 1 343 19 is_stmt 0 view .LVU149
 457 0008 0468     		ldr	r4, [r0]
 458              		.loc 1 343 11 view .LVU150
 459 000a 04F01F00 		and	r0, r4, #31
 460              	.LVL32:
 344:C:/Users/lenovo/STM32Cube/Repository/STM32Cube_FW_F1_V1.8.0/Drivers/STM32F1xx_HAL_Driver/Src\stm32f1xx_hal_exti.c ****   maskline = (1uL << linepos);
 461              		.loc 1 344 3 is_stmt 1 view .LVU151
 462              		.loc 1 344 12 is_stmt 0 view .LVU152
 463 000e 0123     		movs	r3, #1
 464 0010 8340     		lsls	r3, r3, r0
 465              	.LVL33:
ARM GAS  C:\Users\lenovo\AppData\Local\Temp\ccvaGzQf.s 			page 16


 345:C:/Users/lenovo/STM32Cube/Repository/STM32Cube_FW_F1_V1.8.0/Drivers/STM32F1xx_HAL_Driver/Src\stm32f1xx_hal_exti.c **** 
 346:C:/Users/lenovo/STM32Cube/Repository/STM32Cube_FW_F1_V1.8.0/Drivers/STM32F1xx_HAL_Driver/Src\stm32f1xx_hal_exti.c ****   /* 1] Clear interrupt mode */
 347:C:/Users/lenovo/STM32Cube/Repository/STM32Cube_FW_F1_V1.8.0/Drivers/STM32F1xx_HAL_Driver/Src\stm32f1xx_hal_exti.c ****   EXTI->IMR = (EXTI->IMR & ~maskline);
 466              		.loc 1 347 3 is_stmt 1 view .LVU153
 467              		.loc 1 347 20 is_stmt 0 view .LVU154
 468 0012 1B4A     		ldr	r2, .L45
 469 0014 1168     		ldr	r1, [r2]
 470              		.loc 1 347 28 view .LVU155
 471 0016 6FEA030E 		mvn	lr, r3
 472              		.loc 1 347 26 view .LVU156
 473 001a 21EA0301 		bic	r1, r1, r3
 474              		.loc 1 347 13 view .LVU157
 475 001e 1160     		str	r1, [r2]
 348:C:/Users/lenovo/STM32Cube/Repository/STM32Cube_FW_F1_V1.8.0/Drivers/STM32F1xx_HAL_Driver/Src\stm32f1xx_hal_exti.c **** 
 349:C:/Users/lenovo/STM32Cube/Repository/STM32Cube_FW_F1_V1.8.0/Drivers/STM32F1xx_HAL_Driver/Src\stm32f1xx_hal_exti.c ****   /* 2] Clear event mode */
 350:C:/Users/lenovo/STM32Cube/Repository/STM32Cube_FW_F1_V1.8.0/Drivers/STM32F1xx_HAL_Driver/Src\stm32f1xx_hal_exti.c ****   EXTI->EMR = (EXTI->EMR & ~maskline);
 476              		.loc 1 350 3 is_stmt 1 view .LVU158
 477              		.loc 1 350 20 is_stmt 0 view .LVU159
 478 0020 5168     		ldr	r1, [r2, #4]
 479              		.loc 1 350 26 view .LVU160
 480 0022 21EA0303 		bic	r3, r1, r3
 481              	.LVL34:
 482              		.loc 1 350 13 view .LVU161
 483 0026 5360     		str	r3, [r2, #4]
 351:C:/Users/lenovo/STM32Cube/Repository/STM32Cube_FW_F1_V1.8.0/Drivers/STM32F1xx_HAL_Driver/Src\stm32f1xx_hal_exti.c **** 
 352:C:/Users/lenovo/STM32Cube/Repository/STM32Cube_FW_F1_V1.8.0/Drivers/STM32F1xx_HAL_Driver/Src\stm32f1xx_hal_exti.c ****   /* 3] Clear triggers in case of configurable lines */
 353:C:/Users/lenovo/STM32Cube/Repository/STM32Cube_FW_F1_V1.8.0/Drivers/STM32F1xx_HAL_Driver/Src\stm32f1xx_hal_exti.c ****   if ((hexti->Line & EXTI_CONFIG) != 0x00u)
 484              		.loc 1 353 3 is_stmt 1 view .LVU162
 485              		.loc 1 353 13 is_stmt 0 view .LVU163
 486 0028 DCF80030 		ldr	r3, [ip]
 487              		.loc 1 353 6 view .LVU164
 488 002c 13F0007F 		tst	r3, #33554432
 489 0030 23D0     		beq	.L38
 354:C:/Users/lenovo/STM32Cube/Repository/STM32Cube_FW_F1_V1.8.0/Drivers/STM32F1xx_HAL_Driver/Src\stm32f1xx_hal_exti.c ****   {
 355:C:/Users/lenovo/STM32Cube/Repository/STM32Cube_FW_F1_V1.8.0/Drivers/STM32F1xx_HAL_Driver/Src\stm32f1xx_hal_exti.c ****     EXTI->RTSR = (EXTI->RTSR & ~maskline);
 490              		.loc 1 355 5 is_stmt 1 view .LVU165
 491              		.loc 1 355 23 is_stmt 0 view .LVU166
 492 0032 9368     		ldr	r3, [r2, #8]
 493              		.loc 1 355 30 view .LVU167
 494 0034 0EEA0303 		and	r3, lr, r3
 495              		.loc 1 355 16 view .LVU168
 496 0038 9360     		str	r3, [r2, #8]
 356:C:/Users/lenovo/STM32Cube/Repository/STM32Cube_FW_F1_V1.8.0/Drivers/STM32F1xx_HAL_Driver/Src\stm32f1xx_hal_exti.c ****     EXTI->FTSR = (EXTI->FTSR & ~maskline);
 497              		.loc 1 356 5 is_stmt 1 view .LVU169
 498              		.loc 1 356 23 is_stmt 0 view .LVU170
 499 003a D368     		ldr	r3, [r2, #12]
 500              		.loc 1 356 30 view .LVU171
 501 003c 0EEA0303 		and	r3, lr, r3
 502              		.loc 1 356 16 view .LVU172
 503 0040 D360     		str	r3, [r2, #12]
 357:C:/Users/lenovo/STM32Cube/Repository/STM32Cube_FW_F1_V1.8.0/Drivers/STM32F1xx_HAL_Driver/Src\stm32f1xx_hal_exti.c **** 
 358:C:/Users/lenovo/STM32Cube/Repository/STM32Cube_FW_F1_V1.8.0/Drivers/STM32F1xx_HAL_Driver/Src\stm32f1xx_hal_exti.c ****     /* Get Gpio port selection for gpio lines */
 359:C:/Users/lenovo/STM32Cube/Repository/STM32Cube_FW_F1_V1.8.0/Drivers/STM32F1xx_HAL_Driver/Src\stm32f1xx_hal_exti.c ****     if ((hexti->Line & EXTI_GPIO) == EXTI_GPIO)
 504              		.loc 1 359 5 is_stmt 1 view .LVU173
 505              		.loc 1 359 15 is_stmt 0 view .LVU174
 506 0042 DCF80030 		ldr	r3, [ip]
 507              		.loc 1 359 22 view .LVU175
ARM GAS  C:\Users\lenovo\AppData\Local\Temp\ccvaGzQf.s 			page 17


 508 0046 03F0C063 		and	r3, r3, #100663296
 509              		.loc 1 359 8 view .LVU176
 510 004a B3F1C06F 		cmp	r3, #100663296
 511 004e 01D0     		beq	.L44
 360:C:/Users/lenovo/STM32Cube/Repository/STM32Cube_FW_F1_V1.8.0/Drivers/STM32F1xx_HAL_Driver/Src\stm32f1xx_hal_exti.c ****     {
 361:C:/Users/lenovo/STM32Cube/Repository/STM32Cube_FW_F1_V1.8.0/Drivers/STM32F1xx_HAL_Driver/Src\stm32f1xx_hal_exti.c ****       assert_param(IS_EXTI_GPIO_PIN(linepos));
 362:C:/Users/lenovo/STM32Cube/Repository/STM32Cube_FW_F1_V1.8.0/Drivers/STM32F1xx_HAL_Driver/Src\stm32f1xx_hal_exti.c **** 
 363:C:/Users/lenovo/STM32Cube/Repository/STM32Cube_FW_F1_V1.8.0/Drivers/STM32F1xx_HAL_Driver/Src\stm32f1xx_hal_exti.c ****       regval = AFIO->EXTICR[linepos >> 2u];
 364:C:/Users/lenovo/STM32Cube/Repository/STM32Cube_FW_F1_V1.8.0/Drivers/STM32F1xx_HAL_Driver/Src\stm32f1xx_hal_exti.c ****       regval &= ~(AFIO_EXTICR1_EXTI0 << (AFIO_EXTICR1_EXTI1_Pos * (linepos & 0x03u)));
 365:C:/Users/lenovo/STM32Cube/Repository/STM32Cube_FW_F1_V1.8.0/Drivers/STM32F1xx_HAL_Driver/Src\stm32f1xx_hal_exti.c ****       AFIO->EXTICR[linepos >> 2u] = regval;
 366:C:/Users/lenovo/STM32Cube/Repository/STM32Cube_FW_F1_V1.8.0/Drivers/STM32F1xx_HAL_Driver/Src\stm32f1xx_hal_exti.c ****     }
 367:C:/Users/lenovo/STM32Cube/Repository/STM32Cube_FW_F1_V1.8.0/Drivers/STM32F1xx_HAL_Driver/Src\stm32f1xx_hal_exti.c ****   }
 368:C:/Users/lenovo/STM32Cube/Repository/STM32Cube_FW_F1_V1.8.0/Drivers/STM32F1xx_HAL_Driver/Src\stm32f1xx_hal_exti.c **** 
 369:C:/Users/lenovo/STM32Cube/Repository/STM32Cube_FW_F1_V1.8.0/Drivers/STM32F1xx_HAL_Driver/Src\stm32f1xx_hal_exti.c ****   return HAL_OK;
 512              		.loc 1 369 10 view .LVU177
 513 0050 0020     		movs	r0, #0
 514              	.LVL35:
 515              		.loc 1 369 10 view .LVU178
 516 0052 13E0     		b	.L36
 517              	.LVL36:
 518              	.L44:
 361:C:/Users/lenovo/STM32Cube/Repository/STM32Cube_FW_F1_V1.8.0/Drivers/STM32F1xx_HAL_Driver/Src\stm32f1xx_hal_exti.c **** 
 519              		.loc 1 361 7 is_stmt 1 view .LVU179
 363:C:/Users/lenovo/STM32Cube/Repository/STM32Cube_FW_F1_V1.8.0/Drivers/STM32F1xx_HAL_Driver/Src\stm32f1xx_hal_exti.c ****       regval &= ~(AFIO_EXTICR1_EXTI0 << (AFIO_EXTICR1_EXTI1_Pos * (linepos & 0x03u)));
 520              		.loc 1 363 7 view .LVU180
 363:C:/Users/lenovo/STM32Cube/Repository/STM32Cube_FW_F1_V1.8.0/Drivers/STM32F1xx_HAL_Driver/Src\stm32f1xx_hal_exti.c ****       regval &= ~(AFIO_EXTICR1_EXTI0 << (AFIO_EXTICR1_EXTI1_Pos * (linepos & 0x03u)));
 521              		.loc 1 363 37 is_stmt 0 view .LVU181
 522 0054 8008     		lsrs	r0, r0, #2
 523              	.LVL37:
 363:C:/Users/lenovo/STM32Cube/Repository/STM32Cube_FW_F1_V1.8.0/Drivers/STM32F1xx_HAL_Driver/Src\stm32f1xx_hal_exti.c ****       regval &= ~(AFIO_EXTICR1_EXTI0 << (AFIO_EXTICR1_EXTI1_Pos * (linepos & 0x03u)));
 524              		.loc 1 363 14 view .LVU182
 525 0056 0B49     		ldr	r1, .L45+4
 526 0058 0230     		adds	r0, r0, #2
 527 005a 51F82030 		ldr	r3, [r1, r0, lsl #2]
 528              	.LVL38:
 364:C:/Users/lenovo/STM32Cube/Repository/STM32Cube_FW_F1_V1.8.0/Drivers/STM32F1xx_HAL_Driver/Src\stm32f1xx_hal_exti.c ****       AFIO->EXTICR[linepos >> 2u] = regval;
 529              		.loc 1 364 7 is_stmt 1 view .LVU183
 364:C:/Users/lenovo/STM32Cube/Repository/STM32Cube_FW_F1_V1.8.0/Drivers/STM32F1xx_HAL_Driver/Src\stm32f1xx_hal_exti.c ****       AFIO->EXTICR[linepos >> 2u] = regval;
 530              		.loc 1 364 76 is_stmt 0 view .LVU184
 531 005e 04F00304 		and	r4, r4, #3
 532              	.LVL39:
 364:C:/Users/lenovo/STM32Cube/Repository/STM32Cube_FW_F1_V1.8.0/Drivers/STM32F1xx_HAL_Driver/Src\stm32f1xx_hal_exti.c ****       AFIO->EXTICR[linepos >> 2u] = regval;
 533              		.loc 1 364 65 view .LVU185
 534 0062 A400     		lsls	r4, r4, #2
 364:C:/Users/lenovo/STM32Cube/Repository/STM32Cube_FW_F1_V1.8.0/Drivers/STM32F1xx_HAL_Driver/Src\stm32f1xx_hal_exti.c ****       AFIO->EXTICR[linepos >> 2u] = regval;
 535              		.loc 1 364 38 view .LVU186
 536 0064 0F22     		movs	r2, #15
 537 0066 02FA04F4 		lsl	r4, r2, r4
 364:C:/Users/lenovo/STM32Cube/Repository/STM32Cube_FW_F1_V1.8.0/Drivers/STM32F1xx_HAL_Driver/Src\stm32f1xx_hal_exti.c ****       AFIO->EXTICR[linepos >> 2u] = regval;
 538              		.loc 1 364 14 view .LVU187
 539 006a 23EA0404 		bic	r4, r3, r4
 540              	.LVL40:
 365:C:/Users/lenovo/STM32Cube/Repository/STM32Cube_FW_F1_V1.8.0/Drivers/STM32F1xx_HAL_Driver/Src\stm32f1xx_hal_exti.c ****     }
 541              		.loc 1 365 7 is_stmt 1 view .LVU188
 365:C:/Users/lenovo/STM32Cube/Repository/STM32Cube_FW_F1_V1.8.0/Drivers/STM32F1xx_HAL_Driver/Src\stm32f1xx_hal_exti.c ****     }
 542              		.loc 1 365 35 is_stmt 0 view .LVU189
 543 006e 41F82040 		str	r4, [r1, r0, lsl #2]
ARM GAS  C:\Users\lenovo\AppData\Local\Temp\ccvaGzQf.s 			page 18


 544              		.loc 1 369 10 view .LVU190
 545 0072 0020     		movs	r0, #0
 546 0074 02E0     		b	.L36
 547              	.LVL41:
 548              	.L37:
 549              	.LCFI5:
 550              		.cfi_def_cfa_offset 0
 551              		.cfi_restore 4
 552              		.cfi_restore 14
 336:C:/Users/lenovo/STM32Cube/Repository/STM32Cube_FW_F1_V1.8.0/Drivers/STM32F1xx_HAL_Driver/Src\stm32f1xx_hal_exti.c ****   }
 553              		.loc 1 336 12 view .LVU191
 554 0076 0120     		movs	r0, #1
 555              	.LVL42:
 370:C:/Users/lenovo/STM32Cube/Repository/STM32Cube_FW_F1_V1.8.0/Drivers/STM32F1xx_HAL_Driver/Src\stm32f1xx_hal_exti.c **** }
 556              		.loc 1 370 1 view .LVU192
 557 0078 7047     		bx	lr
 558              	.LVL43:
 559              	.L38:
 560              	.LCFI6:
 561              		.cfi_def_cfa_offset 8
 562              		.cfi_offset 4, -8
 563              		.cfi_offset 14, -4
 369:C:/Users/lenovo/STM32Cube/Repository/STM32Cube_FW_F1_V1.8.0/Drivers/STM32F1xx_HAL_Driver/Src\stm32f1xx_hal_exti.c **** }
 564              		.loc 1 369 10 view .LVU193
 565 007a 0020     		movs	r0, #0
 566              	.LVL44:
 567              	.L36:
 568              		.loc 1 370 1 view .LVU194
 569 007c 10BD     		pop	{r4, pc}
 570              	.L46:
 571 007e 00BF     		.align	2
 572              	.L45:
 573 0080 00040140 		.word	1073808384
 574 0084 00000140 		.word	1073807360
 575              		.cfi_endproc
 576              	.LFE67:
 578              		.section	.text.HAL_EXTI_RegisterCallback,"ax",%progbits
 579              		.align	1
 580              		.global	HAL_EXTI_RegisterCallback
 581              		.syntax unified
 582              		.thumb
 583              		.thumb_func
 585              	HAL_EXTI_RegisterCallback:
 586              	.LVL45:
 587              	.LFB68:
 371:C:/Users/lenovo/STM32Cube/Repository/STM32Cube_FW_F1_V1.8.0/Drivers/STM32F1xx_HAL_Driver/Src\stm32f1xx_hal_exti.c **** 
 372:C:/Users/lenovo/STM32Cube/Repository/STM32Cube_FW_F1_V1.8.0/Drivers/STM32F1xx_HAL_Driver/Src\stm32f1xx_hal_exti.c **** /**
 373:C:/Users/lenovo/STM32Cube/Repository/STM32Cube_FW_F1_V1.8.0/Drivers/STM32F1xx_HAL_Driver/Src\stm32f1xx_hal_exti.c ****   * @brief  Register callback for a dedicated Exti line.
 374:C:/Users/lenovo/STM32Cube/Repository/STM32Cube_FW_F1_V1.8.0/Drivers/STM32F1xx_HAL_Driver/Src\stm32f1xx_hal_exti.c ****   * @param  hexti Exti handle.
 375:C:/Users/lenovo/STM32Cube/Repository/STM32Cube_FW_F1_V1.8.0/Drivers/STM32F1xx_HAL_Driver/Src\stm32f1xx_hal_exti.c ****   * @param  CallbackID User callback identifier.
 376:C:/Users/lenovo/STM32Cube/Repository/STM32Cube_FW_F1_V1.8.0/Drivers/STM32F1xx_HAL_Driver/Src\stm32f1xx_hal_exti.c ****   *         This parameter can be one of @arg @ref EXTI_CallbackIDTypeDef values.
 377:C:/Users/lenovo/STM32Cube/Repository/STM32Cube_FW_F1_V1.8.0/Drivers/STM32F1xx_HAL_Driver/Src\stm32f1xx_hal_exti.c ****   * @param  pPendingCbfn function pointer to be stored as callback.
 378:C:/Users/lenovo/STM32Cube/Repository/STM32Cube_FW_F1_V1.8.0/Drivers/STM32F1xx_HAL_Driver/Src\stm32f1xx_hal_exti.c ****   * @retval HAL Status.
 379:C:/Users/lenovo/STM32Cube/Repository/STM32Cube_FW_F1_V1.8.0/Drivers/STM32F1xx_HAL_Driver/Src\stm32f1xx_hal_exti.c ****   */
 380:C:/Users/lenovo/STM32Cube/Repository/STM32Cube_FW_F1_V1.8.0/Drivers/STM32F1xx_HAL_Driver/Src\stm32f1xx_hal_exti.c **** HAL_StatusTypeDef HAL_EXTI_RegisterCallback(EXTI_HandleTypeDef *hexti, EXTI_CallbackIDTypeDef Callb
 381:C:/Users/lenovo/STM32Cube/Repository/STM32Cube_FW_F1_V1.8.0/Drivers/STM32F1xx_HAL_Driver/Src\stm32f1xx_hal_exti.c **** {
 588              		.loc 1 381 1 is_stmt 1 view -0
ARM GAS  C:\Users\lenovo\AppData\Local\Temp\ccvaGzQf.s 			page 19


 589              		.cfi_startproc
 590              		@ args = 0, pretend = 0, frame = 0
 591              		@ frame_needed = 0, uses_anonymous_args = 0
 592              		@ link register save eliminated.
 593              		.loc 1 381 1 is_stmt 0 view .LVU196
 594 0000 0346     		mov	r3, r0
 382:C:/Users/lenovo/STM32Cube/Repository/STM32Cube_FW_F1_V1.8.0/Drivers/STM32F1xx_HAL_Driver/Src\stm32f1xx_hal_exti.c ****   HAL_StatusTypeDef status = HAL_OK;
 595              		.loc 1 382 3 is_stmt 1 view .LVU197
 596              	.LVL46:
 383:C:/Users/lenovo/STM32Cube/Repository/STM32Cube_FW_F1_V1.8.0/Drivers/STM32F1xx_HAL_Driver/Src\stm32f1xx_hal_exti.c **** 
 384:C:/Users/lenovo/STM32Cube/Repository/STM32Cube_FW_F1_V1.8.0/Drivers/STM32F1xx_HAL_Driver/Src\stm32f1xx_hal_exti.c ****   switch (CallbackID)
 597              		.loc 1 384 3 view .LVU198
 598 0002 0846     		mov	r0, r1
 599              	.LVL47:
 600              		.loc 1 384 3 is_stmt 0 view .LVU199
 601 0004 09B9     		cbnz	r1, .L49
 385:C:/Users/lenovo/STM32Cube/Repository/STM32Cube_FW_F1_V1.8.0/Drivers/STM32F1xx_HAL_Driver/Src\stm32f1xx_hal_exti.c ****   {
 386:C:/Users/lenovo/STM32Cube/Repository/STM32Cube_FW_F1_V1.8.0/Drivers/STM32F1xx_HAL_Driver/Src\stm32f1xx_hal_exti.c ****     case  HAL_EXTI_COMMON_CB_ID:
 387:C:/Users/lenovo/STM32Cube/Repository/STM32Cube_FW_F1_V1.8.0/Drivers/STM32F1xx_HAL_Driver/Src\stm32f1xx_hal_exti.c ****       hexti->PendingCallback = pPendingCbfn;
 602              		.loc 1 387 7 is_stmt 1 view .LVU200
 603              		.loc 1 387 30 is_stmt 0 view .LVU201
 604 0006 5A60     		str	r2, [r3, #4]
 388:C:/Users/lenovo/STM32Cube/Repository/STM32Cube_FW_F1_V1.8.0/Drivers/STM32F1xx_HAL_Driver/Src\stm32f1xx_hal_exti.c ****       break;
 605              		.loc 1 388 7 is_stmt 1 view .LVU202
 606 0008 7047     		bx	lr
 607              	.L49:
 389:C:/Users/lenovo/STM32Cube/Repository/STM32Cube_FW_F1_V1.8.0/Drivers/STM32F1xx_HAL_Driver/Src\stm32f1xx_hal_exti.c **** 
 390:C:/Users/lenovo/STM32Cube/Repository/STM32Cube_FW_F1_V1.8.0/Drivers/STM32F1xx_HAL_Driver/Src\stm32f1xx_hal_exti.c ****     default:
 391:C:/Users/lenovo/STM32Cube/Repository/STM32Cube_FW_F1_V1.8.0/Drivers/STM32F1xx_HAL_Driver/Src\stm32f1xx_hal_exti.c ****       status = HAL_ERROR;
 608              		.loc 1 391 14 is_stmt 0 view .LVU203
 609 000a 0120     		movs	r0, #1
 610              	.LVL48:
 392:C:/Users/lenovo/STM32Cube/Repository/STM32Cube_FW_F1_V1.8.0/Drivers/STM32F1xx_HAL_Driver/Src\stm32f1xx_hal_exti.c ****       break;
 393:C:/Users/lenovo/STM32Cube/Repository/STM32Cube_FW_F1_V1.8.0/Drivers/STM32F1xx_HAL_Driver/Src\stm32f1xx_hal_exti.c ****   }
 394:C:/Users/lenovo/STM32Cube/Repository/STM32Cube_FW_F1_V1.8.0/Drivers/STM32F1xx_HAL_Driver/Src\stm32f1xx_hal_exti.c **** 
 395:C:/Users/lenovo/STM32Cube/Repository/STM32Cube_FW_F1_V1.8.0/Drivers/STM32F1xx_HAL_Driver/Src\stm32f1xx_hal_exti.c ****   return status;
 611              		.loc 1 395 3 is_stmt 1 view .LVU204
 396:C:/Users/lenovo/STM32Cube/Repository/STM32Cube_FW_F1_V1.8.0/Drivers/STM32F1xx_HAL_Driver/Src\stm32f1xx_hal_exti.c **** }
 612              		.loc 1 396 1 is_stmt 0 view .LVU205
 613 000c 7047     		bx	lr
 614              		.cfi_endproc
 615              	.LFE68:
 617              		.section	.text.HAL_EXTI_GetHandle,"ax",%progbits
 618              		.align	1
 619              		.global	HAL_EXTI_GetHandle
 620              		.syntax unified
 621              		.thumb
 622              		.thumb_func
 624              	HAL_EXTI_GetHandle:
 625              	.LVL49:
 626              	.LFB69:
 397:C:/Users/lenovo/STM32Cube/Repository/STM32Cube_FW_F1_V1.8.0/Drivers/STM32F1xx_HAL_Driver/Src\stm32f1xx_hal_exti.c **** 
 398:C:/Users/lenovo/STM32Cube/Repository/STM32Cube_FW_F1_V1.8.0/Drivers/STM32F1xx_HAL_Driver/Src\stm32f1xx_hal_exti.c **** /**
 399:C:/Users/lenovo/STM32Cube/Repository/STM32Cube_FW_F1_V1.8.0/Drivers/STM32F1xx_HAL_Driver/Src\stm32f1xx_hal_exti.c ****   * @brief  Store line number as handle private field.
 400:C:/Users/lenovo/STM32Cube/Repository/STM32Cube_FW_F1_V1.8.0/Drivers/STM32F1xx_HAL_Driver/Src\stm32f1xx_hal_exti.c ****   * @param  hexti Exti handle.
 401:C:/Users/lenovo/STM32Cube/Repository/STM32Cube_FW_F1_V1.8.0/Drivers/STM32F1xx_HAL_Driver/Src\stm32f1xx_hal_exti.c ****   * @param  ExtiLine Exti line number.
 402:C:/Users/lenovo/STM32Cube/Repository/STM32Cube_FW_F1_V1.8.0/Drivers/STM32F1xx_HAL_Driver/Src\stm32f1xx_hal_exti.c ****   *         This parameter can be from 0 to @ref EXTI_LINE_NB.
ARM GAS  C:\Users\lenovo\AppData\Local\Temp\ccvaGzQf.s 			page 20


 403:C:/Users/lenovo/STM32Cube/Repository/STM32Cube_FW_F1_V1.8.0/Drivers/STM32F1xx_HAL_Driver/Src\stm32f1xx_hal_exti.c ****   * @retval HAL Status.
 404:C:/Users/lenovo/STM32Cube/Repository/STM32Cube_FW_F1_V1.8.0/Drivers/STM32F1xx_HAL_Driver/Src\stm32f1xx_hal_exti.c ****   */
 405:C:/Users/lenovo/STM32Cube/Repository/STM32Cube_FW_F1_V1.8.0/Drivers/STM32F1xx_HAL_Driver/Src\stm32f1xx_hal_exti.c **** HAL_StatusTypeDef HAL_EXTI_GetHandle(EXTI_HandleTypeDef *hexti, uint32_t ExtiLine)
 406:C:/Users/lenovo/STM32Cube/Repository/STM32Cube_FW_F1_V1.8.0/Drivers/STM32F1xx_HAL_Driver/Src\stm32f1xx_hal_exti.c **** {
 627              		.loc 1 406 1 is_stmt 1 view -0
 628              		.cfi_startproc
 629              		@ args = 0, pretend = 0, frame = 0
 630              		@ frame_needed = 0, uses_anonymous_args = 0
 631              		@ link register save eliminated.
 407:C:/Users/lenovo/STM32Cube/Repository/STM32Cube_FW_F1_V1.8.0/Drivers/STM32F1xx_HAL_Driver/Src\stm32f1xx_hal_exti.c ****   /* Check the parameters */
 408:C:/Users/lenovo/STM32Cube/Repository/STM32Cube_FW_F1_V1.8.0/Drivers/STM32F1xx_HAL_Driver/Src\stm32f1xx_hal_exti.c ****   assert_param(IS_EXTI_LINE(ExtiLine));
 632              		.loc 1 408 3 view .LVU207
 409:C:/Users/lenovo/STM32Cube/Repository/STM32Cube_FW_F1_V1.8.0/Drivers/STM32F1xx_HAL_Driver/Src\stm32f1xx_hal_exti.c **** 
 410:C:/Users/lenovo/STM32Cube/Repository/STM32Cube_FW_F1_V1.8.0/Drivers/STM32F1xx_HAL_Driver/Src\stm32f1xx_hal_exti.c ****   /* Check null pointer */
 411:C:/Users/lenovo/STM32Cube/Repository/STM32Cube_FW_F1_V1.8.0/Drivers/STM32F1xx_HAL_Driver/Src\stm32f1xx_hal_exti.c ****   if (hexti == NULL)
 633              		.loc 1 411 3 view .LVU208
 634              		.loc 1 411 6 is_stmt 0 view .LVU209
 635 0000 10B1     		cbz	r0, .L52
 412:C:/Users/lenovo/STM32Cube/Repository/STM32Cube_FW_F1_V1.8.0/Drivers/STM32F1xx_HAL_Driver/Src\stm32f1xx_hal_exti.c ****   {
 413:C:/Users/lenovo/STM32Cube/Repository/STM32Cube_FW_F1_V1.8.0/Drivers/STM32F1xx_HAL_Driver/Src\stm32f1xx_hal_exti.c ****     return HAL_ERROR;
 414:C:/Users/lenovo/STM32Cube/Repository/STM32Cube_FW_F1_V1.8.0/Drivers/STM32F1xx_HAL_Driver/Src\stm32f1xx_hal_exti.c ****   }
 415:C:/Users/lenovo/STM32Cube/Repository/STM32Cube_FW_F1_V1.8.0/Drivers/STM32F1xx_HAL_Driver/Src\stm32f1xx_hal_exti.c ****   else
 416:C:/Users/lenovo/STM32Cube/Repository/STM32Cube_FW_F1_V1.8.0/Drivers/STM32F1xx_HAL_Driver/Src\stm32f1xx_hal_exti.c ****   {
 417:C:/Users/lenovo/STM32Cube/Repository/STM32Cube_FW_F1_V1.8.0/Drivers/STM32F1xx_HAL_Driver/Src\stm32f1xx_hal_exti.c ****     /* Store line number as handle private field */
 418:C:/Users/lenovo/STM32Cube/Repository/STM32Cube_FW_F1_V1.8.0/Drivers/STM32F1xx_HAL_Driver/Src\stm32f1xx_hal_exti.c ****     hexti->Line = ExtiLine;
 636              		.loc 1 418 5 is_stmt 1 view .LVU210
 637              		.loc 1 418 17 is_stmt 0 view .LVU211
 638 0002 0160     		str	r1, [r0]
 419:C:/Users/lenovo/STM32Cube/Repository/STM32Cube_FW_F1_V1.8.0/Drivers/STM32F1xx_HAL_Driver/Src\stm32f1xx_hal_exti.c **** 
 420:C:/Users/lenovo/STM32Cube/Repository/STM32Cube_FW_F1_V1.8.0/Drivers/STM32F1xx_HAL_Driver/Src\stm32f1xx_hal_exti.c ****     return HAL_OK;
 639              		.loc 1 420 5 is_stmt 1 view .LVU212
 640              		.loc 1 420 12 is_stmt 0 view .LVU213
 641 0004 0020     		movs	r0, #0
 642              	.LVL50:
 643              		.loc 1 420 12 view .LVU214
 644 0006 7047     		bx	lr
 645              	.LVL51:
 646              	.L52:
 413:C:/Users/lenovo/STM32Cube/Repository/STM32Cube_FW_F1_V1.8.0/Drivers/STM32F1xx_HAL_Driver/Src\stm32f1xx_hal_exti.c ****   }
 647              		.loc 1 413 12 view .LVU215
 648 0008 0120     		movs	r0, #1
 649              	.LVL52:
 421:C:/Users/lenovo/STM32Cube/Repository/STM32Cube_FW_F1_V1.8.0/Drivers/STM32F1xx_HAL_Driver/Src\stm32f1xx_hal_exti.c ****   }
 422:C:/Users/lenovo/STM32Cube/Repository/STM32Cube_FW_F1_V1.8.0/Drivers/STM32F1xx_HAL_Driver/Src\stm32f1xx_hal_exti.c **** }
 650              		.loc 1 422 1 view .LVU216
 651 000a 7047     		bx	lr
 652              		.cfi_endproc
 653              	.LFE69:
 655              		.section	.text.HAL_EXTI_IRQHandler,"ax",%progbits
 656              		.align	1
 657              		.global	HAL_EXTI_IRQHandler
 658              		.syntax unified
 659              		.thumb
 660              		.thumb_func
 662              	HAL_EXTI_IRQHandler:
 663              	.LVL53:
 664              	.LFB70:
ARM GAS  C:\Users\lenovo\AppData\Local\Temp\ccvaGzQf.s 			page 21


 423:C:/Users/lenovo/STM32Cube/Repository/STM32Cube_FW_F1_V1.8.0/Drivers/STM32F1xx_HAL_Driver/Src\stm32f1xx_hal_exti.c **** 
 424:C:/Users/lenovo/STM32Cube/Repository/STM32Cube_FW_F1_V1.8.0/Drivers/STM32F1xx_HAL_Driver/Src\stm32f1xx_hal_exti.c **** /**
 425:C:/Users/lenovo/STM32Cube/Repository/STM32Cube_FW_F1_V1.8.0/Drivers/STM32F1xx_HAL_Driver/Src\stm32f1xx_hal_exti.c ****   * @}
 426:C:/Users/lenovo/STM32Cube/Repository/STM32Cube_FW_F1_V1.8.0/Drivers/STM32F1xx_HAL_Driver/Src\stm32f1xx_hal_exti.c ****   */
 427:C:/Users/lenovo/STM32Cube/Repository/STM32Cube_FW_F1_V1.8.0/Drivers/STM32F1xx_HAL_Driver/Src\stm32f1xx_hal_exti.c **** 
 428:C:/Users/lenovo/STM32Cube/Repository/STM32Cube_FW_F1_V1.8.0/Drivers/STM32F1xx_HAL_Driver/Src\stm32f1xx_hal_exti.c **** /** @addtogroup EXTI_Exported_Functions_Group2
 429:C:/Users/lenovo/STM32Cube/Repository/STM32Cube_FW_F1_V1.8.0/Drivers/STM32F1xx_HAL_Driver/Src\stm32f1xx_hal_exti.c ****   *  @brief EXTI IO functions.
 430:C:/Users/lenovo/STM32Cube/Repository/STM32Cube_FW_F1_V1.8.0/Drivers/STM32F1xx_HAL_Driver/Src\stm32f1xx_hal_exti.c ****   *
 431:C:/Users/lenovo/STM32Cube/Repository/STM32Cube_FW_F1_V1.8.0/Drivers/STM32F1xx_HAL_Driver/Src\stm32f1xx_hal_exti.c **** @verbatim
 432:C:/Users/lenovo/STM32Cube/Repository/STM32Cube_FW_F1_V1.8.0/Drivers/STM32F1xx_HAL_Driver/Src\stm32f1xx_hal_exti.c ****  ===============================================================================
 433:C:/Users/lenovo/STM32Cube/Repository/STM32Cube_FW_F1_V1.8.0/Drivers/STM32F1xx_HAL_Driver/Src\stm32f1xx_hal_exti.c ****                        ##### IO operation functions #####
 434:C:/Users/lenovo/STM32Cube/Repository/STM32Cube_FW_F1_V1.8.0/Drivers/STM32F1xx_HAL_Driver/Src\stm32f1xx_hal_exti.c ****  ===============================================================================
 435:C:/Users/lenovo/STM32Cube/Repository/STM32Cube_FW_F1_V1.8.0/Drivers/STM32F1xx_HAL_Driver/Src\stm32f1xx_hal_exti.c **** 
 436:C:/Users/lenovo/STM32Cube/Repository/STM32Cube_FW_F1_V1.8.0/Drivers/STM32F1xx_HAL_Driver/Src\stm32f1xx_hal_exti.c **** @endverbatim
 437:C:/Users/lenovo/STM32Cube/Repository/STM32Cube_FW_F1_V1.8.0/Drivers/STM32F1xx_HAL_Driver/Src\stm32f1xx_hal_exti.c ****   * @{
 438:C:/Users/lenovo/STM32Cube/Repository/STM32Cube_FW_F1_V1.8.0/Drivers/STM32F1xx_HAL_Driver/Src\stm32f1xx_hal_exti.c ****   */
 439:C:/Users/lenovo/STM32Cube/Repository/STM32Cube_FW_F1_V1.8.0/Drivers/STM32F1xx_HAL_Driver/Src\stm32f1xx_hal_exti.c **** 
 440:C:/Users/lenovo/STM32Cube/Repository/STM32Cube_FW_F1_V1.8.0/Drivers/STM32F1xx_HAL_Driver/Src\stm32f1xx_hal_exti.c **** /**
 441:C:/Users/lenovo/STM32Cube/Repository/STM32Cube_FW_F1_V1.8.0/Drivers/STM32F1xx_HAL_Driver/Src\stm32f1xx_hal_exti.c ****   * @brief  Handle EXTI interrupt request.
 442:C:/Users/lenovo/STM32Cube/Repository/STM32Cube_FW_F1_V1.8.0/Drivers/STM32F1xx_HAL_Driver/Src\stm32f1xx_hal_exti.c ****   * @param  hexti Exti handle.
 443:C:/Users/lenovo/STM32Cube/Repository/STM32Cube_FW_F1_V1.8.0/Drivers/STM32F1xx_HAL_Driver/Src\stm32f1xx_hal_exti.c ****   * @retval none.
 444:C:/Users/lenovo/STM32Cube/Repository/STM32Cube_FW_F1_V1.8.0/Drivers/STM32F1xx_HAL_Driver/Src\stm32f1xx_hal_exti.c ****   */
 445:C:/Users/lenovo/STM32Cube/Repository/STM32Cube_FW_F1_V1.8.0/Drivers/STM32F1xx_HAL_Driver/Src\stm32f1xx_hal_exti.c **** void HAL_EXTI_IRQHandler(EXTI_HandleTypeDef *hexti)
 446:C:/Users/lenovo/STM32Cube/Repository/STM32Cube_FW_F1_V1.8.0/Drivers/STM32F1xx_HAL_Driver/Src\stm32f1xx_hal_exti.c **** {
 665              		.loc 1 446 1 is_stmt 1 view -0
 666              		.cfi_startproc
 667              		@ args = 0, pretend = 0, frame = 0
 668              		@ frame_needed = 0, uses_anonymous_args = 0
 669              		.loc 1 446 1 is_stmt 0 view .LVU218
 670 0000 08B5     		push	{r3, lr}
 671              	.LCFI7:
 672              		.cfi_def_cfa_offset 8
 673              		.cfi_offset 3, -8
 674              		.cfi_offset 14, -4
 447:C:/Users/lenovo/STM32Cube/Repository/STM32Cube_FW_F1_V1.8.0/Drivers/STM32F1xx_HAL_Driver/Src\stm32f1xx_hal_exti.c ****   uint32_t regval;
 675              		.loc 1 447 3 is_stmt 1 view .LVU219
 448:C:/Users/lenovo/STM32Cube/Repository/STM32Cube_FW_F1_V1.8.0/Drivers/STM32F1xx_HAL_Driver/Src\stm32f1xx_hal_exti.c ****   uint32_t maskline;
 676              		.loc 1 448 3 view .LVU220
 449:C:/Users/lenovo/STM32Cube/Repository/STM32Cube_FW_F1_V1.8.0/Drivers/STM32F1xx_HAL_Driver/Src\stm32f1xx_hal_exti.c **** 
 450:C:/Users/lenovo/STM32Cube/Repository/STM32Cube_FW_F1_V1.8.0/Drivers/STM32F1xx_HAL_Driver/Src\stm32f1xx_hal_exti.c ****   /* Compute line mask */
 451:C:/Users/lenovo/STM32Cube/Repository/STM32Cube_FW_F1_V1.8.0/Drivers/STM32F1xx_HAL_Driver/Src\stm32f1xx_hal_exti.c ****   maskline = (1uL << (hexti->Line & EXTI_PIN_MASK));
 677              		.loc 1 451 3 view .LVU221
 678              		.loc 1 451 28 is_stmt 0 view .LVU222
 679 0002 0368     		ldr	r3, [r0]
 680              		.loc 1 451 35 view .LVU223
 681 0004 03F01F02 		and	r2, r3, #31
 682              		.loc 1 451 12 view .LVU224
 683 0008 0123     		movs	r3, #1
 684 000a 9340     		lsls	r3, r3, r2
 685              	.LVL54:
 452:C:/Users/lenovo/STM32Cube/Repository/STM32Cube_FW_F1_V1.8.0/Drivers/STM32F1xx_HAL_Driver/Src\stm32f1xx_hal_exti.c **** 
 453:C:/Users/lenovo/STM32Cube/Repository/STM32Cube_FW_F1_V1.8.0/Drivers/STM32F1xx_HAL_Driver/Src\stm32f1xx_hal_exti.c ****   /* Get pending bit  */
 454:C:/Users/lenovo/STM32Cube/Repository/STM32Cube_FW_F1_V1.8.0/Drivers/STM32F1xx_HAL_Driver/Src\stm32f1xx_hal_exti.c ****   regval = (EXTI->PR & maskline);
 686              		.loc 1 454 3 is_stmt 1 view .LVU225
 687              		.loc 1 454 17 is_stmt 0 view .LVU226
 688 000c 044A     		ldr	r2, .L56
 689 000e 5269     		ldr	r2, [r2, #20]
ARM GAS  C:\Users\lenovo\AppData\Local\Temp\ccvaGzQf.s 			page 22


 690              	.LVL55:
 455:C:/Users/lenovo/STM32Cube/Repository/STM32Cube_FW_F1_V1.8.0/Drivers/STM32F1xx_HAL_Driver/Src\stm32f1xx_hal_exti.c ****   if (regval != 0x00u)
 691              		.loc 1 455 3 is_stmt 1 view .LVU227
 692              		.loc 1 455 6 is_stmt 0 view .LVU228
 693 0010 1A42     		tst	r2, r3
 694 0012 04D0     		beq	.L53
 456:C:/Users/lenovo/STM32Cube/Repository/STM32Cube_FW_F1_V1.8.0/Drivers/STM32F1xx_HAL_Driver/Src\stm32f1xx_hal_exti.c ****   {
 457:C:/Users/lenovo/STM32Cube/Repository/STM32Cube_FW_F1_V1.8.0/Drivers/STM32F1xx_HAL_Driver/Src\stm32f1xx_hal_exti.c ****     /* Clear pending bit */
 458:C:/Users/lenovo/STM32Cube/Repository/STM32Cube_FW_F1_V1.8.0/Drivers/STM32F1xx_HAL_Driver/Src\stm32f1xx_hal_exti.c ****     EXTI->PR = maskline;
 695              		.loc 1 458 5 is_stmt 1 view .LVU229
 696              		.loc 1 458 14 is_stmt 0 view .LVU230
 697 0014 024A     		ldr	r2, .L56
 698              	.LVL56:
 699              		.loc 1 458 14 view .LVU231
 700 0016 5361     		str	r3, [r2, #20]
 459:C:/Users/lenovo/STM32Cube/Repository/STM32Cube_FW_F1_V1.8.0/Drivers/STM32F1xx_HAL_Driver/Src\stm32f1xx_hal_exti.c **** 
 460:C:/Users/lenovo/STM32Cube/Repository/STM32Cube_FW_F1_V1.8.0/Drivers/STM32F1xx_HAL_Driver/Src\stm32f1xx_hal_exti.c ****     /* Call callback */
 461:C:/Users/lenovo/STM32Cube/Repository/STM32Cube_FW_F1_V1.8.0/Drivers/STM32F1xx_HAL_Driver/Src\stm32f1xx_hal_exti.c ****     if (hexti->PendingCallback != NULL)
 701              		.loc 1 461 5 is_stmt 1 view .LVU232
 702              		.loc 1 461 14 is_stmt 0 view .LVU233
 703 0018 4368     		ldr	r3, [r0, #4]
 704              	.LVL57:
 705              		.loc 1 461 8 view .LVU234
 706 001a 03B1     		cbz	r3, .L53
 462:C:/Users/lenovo/STM32Cube/Repository/STM32Cube_FW_F1_V1.8.0/Drivers/STM32F1xx_HAL_Driver/Src\stm32f1xx_hal_exti.c ****     {
 463:C:/Users/lenovo/STM32Cube/Repository/STM32Cube_FW_F1_V1.8.0/Drivers/STM32F1xx_HAL_Driver/Src\stm32f1xx_hal_exti.c ****       hexti->PendingCallback();
 707              		.loc 1 463 7 is_stmt 1 view .LVU235
 708 001c 9847     		blx	r3
 709              	.LVL58:
 710              	.L53:
 464:C:/Users/lenovo/STM32Cube/Repository/STM32Cube_FW_F1_V1.8.0/Drivers/STM32F1xx_HAL_Driver/Src\stm32f1xx_hal_exti.c ****     }
 465:C:/Users/lenovo/STM32Cube/Repository/STM32Cube_FW_F1_V1.8.0/Drivers/STM32F1xx_HAL_Driver/Src\stm32f1xx_hal_exti.c ****   }
 466:C:/Users/lenovo/STM32Cube/Repository/STM32Cube_FW_F1_V1.8.0/Drivers/STM32F1xx_HAL_Driver/Src\stm32f1xx_hal_exti.c **** }
 711              		.loc 1 466 1 is_stmt 0 view .LVU236
 712 001e 08BD     		pop	{r3, pc}
 713              	.L57:
 714              		.align	2
 715              	.L56:
 716 0020 00040140 		.word	1073808384
 717              		.cfi_endproc
 718              	.LFE70:
 720              		.section	.text.HAL_EXTI_GetPending,"ax",%progbits
 721              		.align	1
 722              		.global	HAL_EXTI_GetPending
 723              		.syntax unified
 724              		.thumb
 725              		.thumb_func
 727              	HAL_EXTI_GetPending:
 728              	.LVL59:
 729              	.LFB71:
 467:C:/Users/lenovo/STM32Cube/Repository/STM32Cube_FW_F1_V1.8.0/Drivers/STM32F1xx_HAL_Driver/Src\stm32f1xx_hal_exti.c **** 
 468:C:/Users/lenovo/STM32Cube/Repository/STM32Cube_FW_F1_V1.8.0/Drivers/STM32F1xx_HAL_Driver/Src\stm32f1xx_hal_exti.c **** /**
 469:C:/Users/lenovo/STM32Cube/Repository/STM32Cube_FW_F1_V1.8.0/Drivers/STM32F1xx_HAL_Driver/Src\stm32f1xx_hal_exti.c ****   * @brief  Get interrupt pending bit of a dedicated line.
 470:C:/Users/lenovo/STM32Cube/Repository/STM32Cube_FW_F1_V1.8.0/Drivers/STM32F1xx_HAL_Driver/Src\stm32f1xx_hal_exti.c ****   * @param  hexti Exti handle.
 471:C:/Users/lenovo/STM32Cube/Repository/STM32Cube_FW_F1_V1.8.0/Drivers/STM32F1xx_HAL_Driver/Src\stm32f1xx_hal_exti.c ****   * @param  Edge Specify which pending edge as to be checked.
 472:C:/Users/lenovo/STM32Cube/Repository/STM32Cube_FW_F1_V1.8.0/Drivers/STM32F1xx_HAL_Driver/Src\stm32f1xx_hal_exti.c ****   *         This parameter can be one of the following values:
 473:C:/Users/lenovo/STM32Cube/Repository/STM32Cube_FW_F1_V1.8.0/Drivers/STM32F1xx_HAL_Driver/Src\stm32f1xx_hal_exti.c ****   *           @arg @ref EXTI_TRIGGER_RISING_FALLING
ARM GAS  C:\Users\lenovo\AppData\Local\Temp\ccvaGzQf.s 			page 23


 474:C:/Users/lenovo/STM32Cube/Repository/STM32Cube_FW_F1_V1.8.0/Drivers/STM32F1xx_HAL_Driver/Src\stm32f1xx_hal_exti.c ****   *         This parameter is kept for compatibility with other series.
 475:C:/Users/lenovo/STM32Cube/Repository/STM32Cube_FW_F1_V1.8.0/Drivers/STM32F1xx_HAL_Driver/Src\stm32f1xx_hal_exti.c ****   * @retval 1 if interrupt is pending else 0.
 476:C:/Users/lenovo/STM32Cube/Repository/STM32Cube_FW_F1_V1.8.0/Drivers/STM32F1xx_HAL_Driver/Src\stm32f1xx_hal_exti.c ****   */
 477:C:/Users/lenovo/STM32Cube/Repository/STM32Cube_FW_F1_V1.8.0/Drivers/STM32F1xx_HAL_Driver/Src\stm32f1xx_hal_exti.c **** uint32_t HAL_EXTI_GetPending(EXTI_HandleTypeDef *hexti, uint32_t Edge)
 478:C:/Users/lenovo/STM32Cube/Repository/STM32Cube_FW_F1_V1.8.0/Drivers/STM32F1xx_HAL_Driver/Src\stm32f1xx_hal_exti.c **** {
 730              		.loc 1 478 1 is_stmt 1 view -0
 731              		.cfi_startproc
 732              		@ args = 0, pretend = 0, frame = 0
 733              		@ frame_needed = 0, uses_anonymous_args = 0
 734              		@ link register save eliminated.
 479:C:/Users/lenovo/STM32Cube/Repository/STM32Cube_FW_F1_V1.8.0/Drivers/STM32F1xx_HAL_Driver/Src\stm32f1xx_hal_exti.c ****   uint32_t regval;
 735              		.loc 1 479 3 view .LVU238
 480:C:/Users/lenovo/STM32Cube/Repository/STM32Cube_FW_F1_V1.8.0/Drivers/STM32F1xx_HAL_Driver/Src\stm32f1xx_hal_exti.c ****   uint32_t maskline;
 736              		.loc 1 480 3 view .LVU239
 481:C:/Users/lenovo/STM32Cube/Repository/STM32Cube_FW_F1_V1.8.0/Drivers/STM32F1xx_HAL_Driver/Src\stm32f1xx_hal_exti.c ****   uint32_t linepos;
 737              		.loc 1 481 3 view .LVU240
 482:C:/Users/lenovo/STM32Cube/Repository/STM32Cube_FW_F1_V1.8.0/Drivers/STM32F1xx_HAL_Driver/Src\stm32f1xx_hal_exti.c **** 
 483:C:/Users/lenovo/STM32Cube/Repository/STM32Cube_FW_F1_V1.8.0/Drivers/STM32F1xx_HAL_Driver/Src\stm32f1xx_hal_exti.c ****   /* Check parameters */
 484:C:/Users/lenovo/STM32Cube/Repository/STM32Cube_FW_F1_V1.8.0/Drivers/STM32F1xx_HAL_Driver/Src\stm32f1xx_hal_exti.c ****   assert_param(IS_EXTI_LINE(hexti->Line));
 738              		.loc 1 484 3 view .LVU241
 485:C:/Users/lenovo/STM32Cube/Repository/STM32Cube_FW_F1_V1.8.0/Drivers/STM32F1xx_HAL_Driver/Src\stm32f1xx_hal_exti.c ****   assert_param(IS_EXTI_CONFIG_LINE(hexti->Line));
 739              		.loc 1 485 3 view .LVU242
 486:C:/Users/lenovo/STM32Cube/Repository/STM32Cube_FW_F1_V1.8.0/Drivers/STM32F1xx_HAL_Driver/Src\stm32f1xx_hal_exti.c ****   assert_param(IS_EXTI_PENDING_EDGE(Edge));
 740              		.loc 1 486 3 view .LVU243
 487:C:/Users/lenovo/STM32Cube/Repository/STM32Cube_FW_F1_V1.8.0/Drivers/STM32F1xx_HAL_Driver/Src\stm32f1xx_hal_exti.c **** 
 488:C:/Users/lenovo/STM32Cube/Repository/STM32Cube_FW_F1_V1.8.0/Drivers/STM32F1xx_HAL_Driver/Src\stm32f1xx_hal_exti.c ****   /* Compute line mask */
 489:C:/Users/lenovo/STM32Cube/Repository/STM32Cube_FW_F1_V1.8.0/Drivers/STM32F1xx_HAL_Driver/Src\stm32f1xx_hal_exti.c ****   linepos = (hexti->Line & EXTI_PIN_MASK);
 741              		.loc 1 489 3 view .LVU244
 742              		.loc 1 489 19 is_stmt 0 view .LVU245
 743 0000 0368     		ldr	r3, [r0]
 744              		.loc 1 489 11 view .LVU246
 745 0002 03F01F03 		and	r3, r3, #31
 746              	.LVL60:
 490:C:/Users/lenovo/STM32Cube/Repository/STM32Cube_FW_F1_V1.8.0/Drivers/STM32F1xx_HAL_Driver/Src\stm32f1xx_hal_exti.c ****   maskline = (1uL << linepos);
 747              		.loc 1 490 3 is_stmt 1 view .LVU247
 748              		.loc 1 490 12 is_stmt 0 view .LVU248
 749 0006 0120     		movs	r0, #1
 750              	.LVL61:
 751              		.loc 1 490 12 view .LVU249
 752 0008 00FA03F2 		lsl	r2, r0, r3
 753              	.LVL62:
 491:C:/Users/lenovo/STM32Cube/Repository/STM32Cube_FW_F1_V1.8.0/Drivers/STM32F1xx_HAL_Driver/Src\stm32f1xx_hal_exti.c **** 
 492:C:/Users/lenovo/STM32Cube/Repository/STM32Cube_FW_F1_V1.8.0/Drivers/STM32F1xx_HAL_Driver/Src\stm32f1xx_hal_exti.c ****   /* return 1 if bit is set else 0 */
 493:C:/Users/lenovo/STM32Cube/Repository/STM32Cube_FW_F1_V1.8.0/Drivers/STM32F1xx_HAL_Driver/Src\stm32f1xx_hal_exti.c ****   regval = ((EXTI->PR & maskline) >> linepos);
 754              		.loc 1 493 3 is_stmt 1 view .LVU250
 755              		.loc 1 493 18 is_stmt 0 view .LVU251
 756 000c 0249     		ldr	r1, .L59
 757              	.LVL63:
 758              		.loc 1 493 18 view .LVU252
 759 000e 4869     		ldr	r0, [r1, #20]
 760              		.loc 1 493 23 view .LVU253
 761 0010 1040     		ands	r0, r0, r2
 762              	.LVL64:
 494:C:/Users/lenovo/STM32Cube/Repository/STM32Cube_FW_F1_V1.8.0/Drivers/STM32F1xx_HAL_Driver/Src\stm32f1xx_hal_exti.c ****   return regval;
 763              		.loc 1 494 3 is_stmt 1 view .LVU254
 495:C:/Users/lenovo/STM32Cube/Repository/STM32Cube_FW_F1_V1.8.0/Drivers/STM32F1xx_HAL_Driver/Src\stm32f1xx_hal_exti.c **** }
 764              		.loc 1 495 1 is_stmt 0 view .LVU255
ARM GAS  C:\Users\lenovo\AppData\Local\Temp\ccvaGzQf.s 			page 24


 765 0012 D840     		lsrs	r0, r0, r3
 766              	.LVL65:
 767              		.loc 1 495 1 view .LVU256
 768 0014 7047     		bx	lr
 769              	.L60:
 770 0016 00BF     		.align	2
 771              	.L59:
 772 0018 00040140 		.word	1073808384
 773              		.cfi_endproc
 774              	.LFE71:
 776              		.section	.text.HAL_EXTI_ClearPending,"ax",%progbits
 777              		.align	1
 778              		.global	HAL_EXTI_ClearPending
 779              		.syntax unified
 780              		.thumb
 781              		.thumb_func
 783              	HAL_EXTI_ClearPending:
 784              	.LVL66:
 785              	.LFB72:
 496:C:/Users/lenovo/STM32Cube/Repository/STM32Cube_FW_F1_V1.8.0/Drivers/STM32F1xx_HAL_Driver/Src\stm32f1xx_hal_exti.c **** 
 497:C:/Users/lenovo/STM32Cube/Repository/STM32Cube_FW_F1_V1.8.0/Drivers/STM32F1xx_HAL_Driver/Src\stm32f1xx_hal_exti.c **** /**
 498:C:/Users/lenovo/STM32Cube/Repository/STM32Cube_FW_F1_V1.8.0/Drivers/STM32F1xx_HAL_Driver/Src\stm32f1xx_hal_exti.c ****   * @brief  Clear interrupt pending bit of a dedicated line.
 499:C:/Users/lenovo/STM32Cube/Repository/STM32Cube_FW_F1_V1.8.0/Drivers/STM32F1xx_HAL_Driver/Src\stm32f1xx_hal_exti.c ****   * @param  hexti Exti handle.
 500:C:/Users/lenovo/STM32Cube/Repository/STM32Cube_FW_F1_V1.8.0/Drivers/STM32F1xx_HAL_Driver/Src\stm32f1xx_hal_exti.c ****   * @param  Edge Specify which pending edge as to be clear.
 501:C:/Users/lenovo/STM32Cube/Repository/STM32Cube_FW_F1_V1.8.0/Drivers/STM32F1xx_HAL_Driver/Src\stm32f1xx_hal_exti.c ****   *         This parameter can be one of the following values:
 502:C:/Users/lenovo/STM32Cube/Repository/STM32Cube_FW_F1_V1.8.0/Drivers/STM32F1xx_HAL_Driver/Src\stm32f1xx_hal_exti.c ****   *           @arg @ref EXTI_TRIGGER_RISING_FALLING
 503:C:/Users/lenovo/STM32Cube/Repository/STM32Cube_FW_F1_V1.8.0/Drivers/STM32F1xx_HAL_Driver/Src\stm32f1xx_hal_exti.c ****   *         This parameter is kept for compatibility with other series.
 504:C:/Users/lenovo/STM32Cube/Repository/STM32Cube_FW_F1_V1.8.0/Drivers/STM32F1xx_HAL_Driver/Src\stm32f1xx_hal_exti.c ****   * @retval None.
 505:C:/Users/lenovo/STM32Cube/Repository/STM32Cube_FW_F1_V1.8.0/Drivers/STM32F1xx_HAL_Driver/Src\stm32f1xx_hal_exti.c ****   */
 506:C:/Users/lenovo/STM32Cube/Repository/STM32Cube_FW_F1_V1.8.0/Drivers/STM32F1xx_HAL_Driver/Src\stm32f1xx_hal_exti.c **** void HAL_EXTI_ClearPending(EXTI_HandleTypeDef *hexti, uint32_t Edge)
 507:C:/Users/lenovo/STM32Cube/Repository/STM32Cube_FW_F1_V1.8.0/Drivers/STM32F1xx_HAL_Driver/Src\stm32f1xx_hal_exti.c **** {
 786              		.loc 1 507 1 is_stmt 1 view -0
 787              		.cfi_startproc
 788              		@ args = 0, pretend = 0, frame = 0
 789              		@ frame_needed = 0, uses_anonymous_args = 0
 790              		@ link register save eliminated.
 508:C:/Users/lenovo/STM32Cube/Repository/STM32Cube_FW_F1_V1.8.0/Drivers/STM32F1xx_HAL_Driver/Src\stm32f1xx_hal_exti.c ****   uint32_t maskline;
 791              		.loc 1 508 3 view .LVU258
 509:C:/Users/lenovo/STM32Cube/Repository/STM32Cube_FW_F1_V1.8.0/Drivers/STM32F1xx_HAL_Driver/Src\stm32f1xx_hal_exti.c **** 
 510:C:/Users/lenovo/STM32Cube/Repository/STM32Cube_FW_F1_V1.8.0/Drivers/STM32F1xx_HAL_Driver/Src\stm32f1xx_hal_exti.c ****   /* Check parameters */
 511:C:/Users/lenovo/STM32Cube/Repository/STM32Cube_FW_F1_V1.8.0/Drivers/STM32F1xx_HAL_Driver/Src\stm32f1xx_hal_exti.c ****   assert_param(IS_EXTI_LINE(hexti->Line));
 792              		.loc 1 511 3 view .LVU259
 512:C:/Users/lenovo/STM32Cube/Repository/STM32Cube_FW_F1_V1.8.0/Drivers/STM32F1xx_HAL_Driver/Src\stm32f1xx_hal_exti.c ****   assert_param(IS_EXTI_CONFIG_LINE(hexti->Line));
 793              		.loc 1 512 3 view .LVU260
 513:C:/Users/lenovo/STM32Cube/Repository/STM32Cube_FW_F1_V1.8.0/Drivers/STM32F1xx_HAL_Driver/Src\stm32f1xx_hal_exti.c ****   assert_param(IS_EXTI_PENDING_EDGE(Edge));
 794              		.loc 1 513 3 view .LVU261
 514:C:/Users/lenovo/STM32Cube/Repository/STM32Cube_FW_F1_V1.8.0/Drivers/STM32F1xx_HAL_Driver/Src\stm32f1xx_hal_exti.c **** 
 515:C:/Users/lenovo/STM32Cube/Repository/STM32Cube_FW_F1_V1.8.0/Drivers/STM32F1xx_HAL_Driver/Src\stm32f1xx_hal_exti.c ****   /* Compute line mask */
 516:C:/Users/lenovo/STM32Cube/Repository/STM32Cube_FW_F1_V1.8.0/Drivers/STM32F1xx_HAL_Driver/Src\stm32f1xx_hal_exti.c ****   maskline = (1uL << (hexti->Line & EXTI_PIN_MASK));
 795              		.loc 1 516 3 view .LVU262
 796              		.loc 1 516 28 is_stmt 0 view .LVU263
 797 0000 0268     		ldr	r2, [r0]
 798              		.loc 1 516 35 view .LVU264
 799 0002 02F01F02 		and	r2, r2, #31
 800              		.loc 1 516 12 view .LVU265
 801 0006 0123     		movs	r3, #1
 802 0008 9340     		lsls	r3, r3, r2
ARM GAS  C:\Users\lenovo\AppData\Local\Temp\ccvaGzQf.s 			page 25


 803              	.LVL67:
 517:C:/Users/lenovo/STM32Cube/Repository/STM32Cube_FW_F1_V1.8.0/Drivers/STM32F1xx_HAL_Driver/Src\stm32f1xx_hal_exti.c **** 
 518:C:/Users/lenovo/STM32Cube/Repository/STM32Cube_FW_F1_V1.8.0/Drivers/STM32F1xx_HAL_Driver/Src\stm32f1xx_hal_exti.c ****   /* Clear Pending bit */
 519:C:/Users/lenovo/STM32Cube/Repository/STM32Cube_FW_F1_V1.8.0/Drivers/STM32F1xx_HAL_Driver/Src\stm32f1xx_hal_exti.c ****   EXTI->PR =  maskline;
 804              		.loc 1 519 3 is_stmt 1 view .LVU266
 805              		.loc 1 519 12 is_stmt 0 view .LVU267
 806 000a 014A     		ldr	r2, .L62
 807 000c 5361     		str	r3, [r2, #20]
 520:C:/Users/lenovo/STM32Cube/Repository/STM32Cube_FW_F1_V1.8.0/Drivers/STM32F1xx_HAL_Driver/Src\stm32f1xx_hal_exti.c **** }
 808              		.loc 1 520 1 view .LVU268
 809 000e 7047     		bx	lr
 810              	.L63:
 811              		.align	2
 812              	.L62:
 813 0010 00040140 		.word	1073808384
 814              		.cfi_endproc
 815              	.LFE72:
 817              		.section	.text.HAL_EXTI_GenerateSWI,"ax",%progbits
 818              		.align	1
 819              		.global	HAL_EXTI_GenerateSWI
 820              		.syntax unified
 821              		.thumb
 822              		.thumb_func
 824              	HAL_EXTI_GenerateSWI:
 825              	.LVL68:
 826              	.LFB73:
 521:C:/Users/lenovo/STM32Cube/Repository/STM32Cube_FW_F1_V1.8.0/Drivers/STM32F1xx_HAL_Driver/Src\stm32f1xx_hal_exti.c **** 
 522:C:/Users/lenovo/STM32Cube/Repository/STM32Cube_FW_F1_V1.8.0/Drivers/STM32F1xx_HAL_Driver/Src\stm32f1xx_hal_exti.c **** /**
 523:C:/Users/lenovo/STM32Cube/Repository/STM32Cube_FW_F1_V1.8.0/Drivers/STM32F1xx_HAL_Driver/Src\stm32f1xx_hal_exti.c ****   * @brief  Generate a software interrupt for a dedicated line.
 524:C:/Users/lenovo/STM32Cube/Repository/STM32Cube_FW_F1_V1.8.0/Drivers/STM32F1xx_HAL_Driver/Src\stm32f1xx_hal_exti.c ****   * @param  hexti Exti handle.
 525:C:/Users/lenovo/STM32Cube/Repository/STM32Cube_FW_F1_V1.8.0/Drivers/STM32F1xx_HAL_Driver/Src\stm32f1xx_hal_exti.c ****   * @retval None.
 526:C:/Users/lenovo/STM32Cube/Repository/STM32Cube_FW_F1_V1.8.0/Drivers/STM32F1xx_HAL_Driver/Src\stm32f1xx_hal_exti.c ****   */
 527:C:/Users/lenovo/STM32Cube/Repository/STM32Cube_FW_F1_V1.8.0/Drivers/STM32F1xx_HAL_Driver/Src\stm32f1xx_hal_exti.c **** void HAL_EXTI_GenerateSWI(EXTI_HandleTypeDef *hexti)
 528:C:/Users/lenovo/STM32Cube/Repository/STM32Cube_FW_F1_V1.8.0/Drivers/STM32F1xx_HAL_Driver/Src\stm32f1xx_hal_exti.c **** {
 827              		.loc 1 528 1 is_stmt 1 view -0
 828              		.cfi_startproc
 829              		@ args = 0, pretend = 0, frame = 0
 830              		@ frame_needed = 0, uses_anonymous_args = 0
 831              		@ link register save eliminated.
 529:C:/Users/lenovo/STM32Cube/Repository/STM32Cube_FW_F1_V1.8.0/Drivers/STM32F1xx_HAL_Driver/Src\stm32f1xx_hal_exti.c ****   uint32_t maskline;
 832              		.loc 1 529 3 view .LVU270
 530:C:/Users/lenovo/STM32Cube/Repository/STM32Cube_FW_F1_V1.8.0/Drivers/STM32F1xx_HAL_Driver/Src\stm32f1xx_hal_exti.c **** 
 531:C:/Users/lenovo/STM32Cube/Repository/STM32Cube_FW_F1_V1.8.0/Drivers/STM32F1xx_HAL_Driver/Src\stm32f1xx_hal_exti.c ****   /* Check parameters */
 532:C:/Users/lenovo/STM32Cube/Repository/STM32Cube_FW_F1_V1.8.0/Drivers/STM32F1xx_HAL_Driver/Src\stm32f1xx_hal_exti.c ****   assert_param(IS_EXTI_LINE(hexti->Line));
 833              		.loc 1 532 3 view .LVU271
 533:C:/Users/lenovo/STM32Cube/Repository/STM32Cube_FW_F1_V1.8.0/Drivers/STM32F1xx_HAL_Driver/Src\stm32f1xx_hal_exti.c ****   assert_param(IS_EXTI_CONFIG_LINE(hexti->Line));
 834              		.loc 1 533 3 view .LVU272
 534:C:/Users/lenovo/STM32Cube/Repository/STM32Cube_FW_F1_V1.8.0/Drivers/STM32F1xx_HAL_Driver/Src\stm32f1xx_hal_exti.c **** 
 535:C:/Users/lenovo/STM32Cube/Repository/STM32Cube_FW_F1_V1.8.0/Drivers/STM32F1xx_HAL_Driver/Src\stm32f1xx_hal_exti.c ****   /* Compute line mask */
 536:C:/Users/lenovo/STM32Cube/Repository/STM32Cube_FW_F1_V1.8.0/Drivers/STM32F1xx_HAL_Driver/Src\stm32f1xx_hal_exti.c ****   maskline = (1uL << (hexti->Line & EXTI_PIN_MASK));
 835              		.loc 1 536 3 view .LVU273
 836              		.loc 1 536 28 is_stmt 0 view .LVU274
 837 0000 0268     		ldr	r2, [r0]
 838              		.loc 1 536 35 view .LVU275
 839 0002 02F01F02 		and	r2, r2, #31
 840              		.loc 1 536 12 view .LVU276
 841 0006 0123     		movs	r3, #1
ARM GAS  C:\Users\lenovo\AppData\Local\Temp\ccvaGzQf.s 			page 26


 842 0008 9340     		lsls	r3, r3, r2
 843              	.LVL69:
 537:C:/Users/lenovo/STM32Cube/Repository/STM32Cube_FW_F1_V1.8.0/Drivers/STM32F1xx_HAL_Driver/Src\stm32f1xx_hal_exti.c **** 
 538:C:/Users/lenovo/STM32Cube/Repository/STM32Cube_FW_F1_V1.8.0/Drivers/STM32F1xx_HAL_Driver/Src\stm32f1xx_hal_exti.c ****   /* Generate Software interrupt */
 539:C:/Users/lenovo/STM32Cube/Repository/STM32Cube_FW_F1_V1.8.0/Drivers/STM32F1xx_HAL_Driver/Src\stm32f1xx_hal_exti.c ****   EXTI->SWIER = maskline;
 844              		.loc 1 539 3 is_stmt 1 view .LVU277
 845              		.loc 1 539 15 is_stmt 0 view .LVU278
 846 000a 014A     		ldr	r2, .L65
 847 000c 1361     		str	r3, [r2, #16]
 540:C:/Users/lenovo/STM32Cube/Repository/STM32Cube_FW_F1_V1.8.0/Drivers/STM32F1xx_HAL_Driver/Src\stm32f1xx_hal_exti.c **** }
 848              		.loc 1 540 1 view .LVU279
 849 000e 7047     		bx	lr
 850              	.L66:
 851              		.align	2
 852              	.L65:
 853 0010 00040140 		.word	1073808384
 854              		.cfi_endproc
 855              	.LFE73:
 857              		.text
 858              	.Letext0:
 859              		.file 2 "d:\\program files (x86)\\gnu arm embedded toolchain\\10 2021.10\\arm-none-eabi\\include\\
 860              		.file 3 "d:\\program files (x86)\\gnu arm embedded toolchain\\10 2021.10\\arm-none-eabi\\include\\
 861              		.file 4 "C:/Users/lenovo/STM32Cube/Repository/STM32Cube_FW_F1_V1.8.0/Drivers/CMSIS/Device/ST/STM32
 862              		.file 5 "C:/Users/lenovo/STM32Cube/Repository/STM32Cube_FW_F1_V1.8.0/Drivers/STM32F1xx_HAL_Driver/
 863              		.file 6 "C:/Users/lenovo/STM32Cube/Repository/STM32Cube_FW_F1_V1.8.0/Drivers/STM32F1xx_HAL_Driver/
ARM GAS  C:\Users\lenovo\AppData\Local\Temp\ccvaGzQf.s 			page 27

